
/home/yangyx/desktop/CA2/code_test/lab0/rv64imf/testFloat2Double/testFloat2Double.riscv:     file format elf64-littleriscv


Disassembly of section .text:

00000000000100e8 <exit>:
   100e8:	ff010113          	add	sp,sp,-16
   100ec:	00000593          	li	a1,0
   100f0:	00813023          	sd	s0,0(sp)
   100f4:	00113423          	sd	ra,8(sp)
   100f8:	00050413          	mv	s0,a0
   100fc:	1ac030ef          	jal	132a8 <__call_exitprocs>
   10100:	7481b503          	ld	a0,1864(gp) # 25ac8 <_global_impure_ptr>
   10104:	05853783          	ld	a5,88(a0)
   10108:	00078463          	beqz	a5,10110 <exit+0x28>
   1010c:	000780e7          	jalr	a5
   10110:	00040513          	mv	a0,s0
   10114:	5890f0ef          	jal	1fe9c <_exit>

0000000000010118 <register_fini>:
   10118:	00000793          	li	a5,0
   1011c:	00078863          	beqz	a5,1012c <register_fini+0x14>
   10120:	00014537          	lui	a0,0x14
   10124:	a7850513          	add	a0,a0,-1416 # 13a78 <__libc_fini_array>
   10128:	5010c06f          	j	1ce28 <atexit>
   1012c:	00008067          	ret

0000000000010130 <_start>:
   10130:	00015197          	auipc	gp,0x15
   10134:	25018193          	add	gp,gp,592 # 25380 <__global_pointer$>
   10138:	77018513          	add	a0,gp,1904 # 25af0 <_PathLocale>
   1013c:	00016617          	auipc	a2,0x16
   10140:	a4460613          	add	a2,a2,-1468 # 25b80 <__BSS_END__>
   10144:	40a60633          	sub	a2,a2,a0
   10148:	00000593          	li	a1,0
   1014c:	7dc000ef          	jal	10928 <memset>
   10150:	0000d517          	auipc	a0,0xd
   10154:	cd850513          	add	a0,a0,-808 # 1ce28 <atexit>
   10158:	00050863          	beqz	a0,10168 <_start+0x38>
   1015c:	00004517          	auipc	a0,0x4
   10160:	91c50513          	add	a0,a0,-1764 # 13a78 <__libc_fini_array>
   10164:	4c50c0ef          	jal	1ce28 <atexit>
   10168:	724000ef          	jal	1088c <__libc_init_array>
   1016c:	00012503          	lw	a0,0(sp)
   10170:	00810593          	add	a1,sp,8
   10174:	00000613          	li	a2,0
   10178:	06c000ef          	jal	101e4 <main>
   1017c:	f6dff06f          	j	100e8 <exit>

0000000000010180 <__do_global_dtors_aux>:
   10180:	ff010113          	add	sp,sp,-16
   10184:	00813023          	sd	s0,0(sp)
   10188:	7a01c783          	lbu	a5,1952(gp) # 25b20 <completed.1>
   1018c:	00113423          	sd	ra,8(sp)
   10190:	02079263          	bnez	a5,101b4 <__do_global_dtors_aux+0x34>
   10194:	00000793          	li	a5,0
   10198:	00078a63          	beqz	a5,101ac <__do_global_dtors_aux+0x2c>
   1019c:	00025537          	lui	a0,0x25
   101a0:	96450513          	add	a0,a0,-1692 # 24964 <__EH_FRAME_BEGIN__>
   101a4:	00000097          	auipc	ra,0x0
   101a8:	000000e7          	jalr	zero # 0 <exit-0x100e8>
   101ac:	00100793          	li	a5,1
   101b0:	7af18023          	sb	a5,1952(gp) # 25b20 <completed.1>
   101b4:	00813083          	ld	ra,8(sp)
   101b8:	00013403          	ld	s0,0(sp)
   101bc:	01010113          	add	sp,sp,16
   101c0:	00008067          	ret

00000000000101c4 <frame_dummy>:
   101c4:	00000793          	li	a5,0
   101c8:	00078c63          	beqz	a5,101e0 <frame_dummy+0x1c>
   101cc:	00025537          	lui	a0,0x25
   101d0:	7a818593          	add	a1,gp,1960 # 25b28 <object.0>
   101d4:	96450513          	add	a0,a0,-1692 # 24964 <__EH_FRAME_BEGIN__>
   101d8:	00000317          	auipc	t1,0x0
   101dc:	00000067          	jr	zero # 0 <exit-0x100e8>
   101e0:	00008067          	ret

00000000000101e4 <main>:
   101e4:	fe010113          	add	sp,sp,-32
   101e8:	00113c23          	sd	ra,24(sp)
   101ec:	00813823          	sd	s0,16(sp)
   101f0:	02010413          	add	s0,sp,32
   101f4:	000237b7          	lui	a5,0x23
   101f8:	a387b783          	ld	a5,-1480(a5) # 22a38 <__trunctfdf2+0x3c0>
   101fc:	fef43423          	sd	a5,-24(s0)
   10200:	fe843783          	ld	a5,-24(s0)
   10204:	00078513          	mv	a0,a5
   10208:	334000ef          	jal	1053c <__truncdfsf2>
   1020c:	20a507d3          	fmv.s	fa5,fa0
   10210:	fef42227          	fsw	fa5,-28(s0)
   10214:	fe840793          	add	a5,s0,-24
   10218:	0007b783          	ld	a5,0(a5)
   1021c:	00078593          	mv	a1,a5
   10220:	000237b7          	lui	a5,0x23
   10224:	a2078513          	add	a0,a5,-1504 # 22a20 <__trunctfdf2+0x3a8>
   10228:	01d000ef          	jal	10a44 <printf>
   1022c:	fe440793          	add	a5,s0,-28
   10230:	0007a783          	lw	a5,0(a5)
   10234:	00078593          	mv	a1,a5
   10238:	000237b7          	lui	a5,0x23
   1023c:	a2878513          	add	a0,a5,-1496 # 22a28 <__trunctfdf2+0x3b0>
   10240:	005000ef          	jal	10a44 <printf>
   10244:	fe843783          	ld	a5,-24(s0)
   10248:	00078593          	mv	a1,a5
   1024c:	000237b7          	lui	a5,0x23
   10250:	a3078513          	add	a0,a5,-1488 # 22a30 <__trunctfdf2+0x3b8>
   10254:	7f0000ef          	jal	10a44 <printf>
   10258:	fe442787          	flw	fa5,-28(s0)
   1025c:	20f78553          	fmv.s	fa0,fa5
   10260:	1e8000ef          	jal	10448 <__extendsfdf2>
   10264:	00050793          	mv	a5,a0
   10268:	00078593          	mv	a1,a5
   1026c:	000237b7          	lui	a5,0x23
   10270:	a3078513          	add	a0,a5,-1488 # 22a30 <__trunctfdf2+0x3b8>
   10274:	7d0000ef          	jal	10a44 <printf>
   10278:	fe043423          	sd	zero,-24(s0)
   1027c:	fe042223          	sw	zero,-28(s0)
   10280:	000237b7          	lui	a5,0x23
   10284:	a407a787          	flw	fa5,-1472(a5) # 22a40 <__trunctfdf2+0x3c8>
   10288:	fef42227          	fsw	fa5,-28(s0)
   1028c:	fe442787          	flw	fa5,-28(s0)
   10290:	20f78553          	fmv.s	fa0,fa5
   10294:	1b4000ef          	jal	10448 <__extendsfdf2>
   10298:	00050793          	mv	a5,a0
   1029c:	fef43423          	sd	a5,-24(s0)
   102a0:	fe840793          	add	a5,s0,-24
   102a4:	0007b783          	ld	a5,0(a5)
   102a8:	00078593          	mv	a1,a5
   102ac:	000237b7          	lui	a5,0x23
   102b0:	a2078513          	add	a0,a5,-1504 # 22a20 <__trunctfdf2+0x3a8>
   102b4:	790000ef          	jal	10a44 <printf>
   102b8:	fe440793          	add	a5,s0,-28
   102bc:	0007a783          	lw	a5,0(a5)
   102c0:	00078593          	mv	a1,a5
   102c4:	000237b7          	lui	a5,0x23
   102c8:	a2878513          	add	a0,a5,-1496 # 22a28 <__trunctfdf2+0x3b0>
   102cc:	778000ef          	jal	10a44 <printf>
   102d0:	fe843783          	ld	a5,-24(s0)
   102d4:	00078593          	mv	a1,a5
   102d8:	000237b7          	lui	a5,0x23
   102dc:	a3078513          	add	a0,a5,-1488 # 22a30 <__trunctfdf2+0x3b8>
   102e0:	764000ef          	jal	10a44 <printf>
   102e4:	fe442787          	flw	fa5,-28(s0)
   102e8:	20f78553          	fmv.s	fa0,fa5
   102ec:	15c000ef          	jal	10448 <__extendsfdf2>
   102f0:	00050793          	mv	a5,a0
   102f4:	00078593          	mv	a1,a5
   102f8:	000237b7          	lui	a5,0x23
   102fc:	a3078513          	add	a0,a5,-1488 # 22a30 <__trunctfdf2+0x3b8>
   10300:	744000ef          	jal	10a44 <printf>
   10304:	00000793          	li	a5,0
   10308:	00078513          	mv	a0,a5
   1030c:	01813083          	ld	ra,24(sp)
   10310:	01013403          	ld	s0,16(sp)
   10314:	02010113          	add	sp,sp,32
   10318:	00008067          	ret

000000000001031c <print_d>:
   1031c:	fe010113          	add	sp,sp,-32
   10320:	00813c23          	sd	s0,24(sp)
   10324:	02010413          	add	s0,sp,32
   10328:	00050793          	mv	a5,a0
   1032c:	fef42623          	sw	a5,-20(s0)
   10330:	00200893          	li	a7,2
   10334:	00000073          	ecall
   10338:	00000013          	nop
   1033c:	01813403          	ld	s0,24(sp)
   10340:	02010113          	add	sp,sp,32
   10344:	00008067          	ret

0000000000010348 <print_s>:
   10348:	fe010113          	add	sp,sp,-32
   1034c:	00813c23          	sd	s0,24(sp)
   10350:	02010413          	add	s0,sp,32
   10354:	fea43423          	sd	a0,-24(s0)
   10358:	00000893          	li	a7,0
   1035c:	00000073          	ecall
   10360:	00000013          	nop
   10364:	01813403          	ld	s0,24(sp)
   10368:	02010113          	add	sp,sp,32
   1036c:	00008067          	ret

0000000000010370 <print_c>:
   10370:	fe010113          	add	sp,sp,-32
   10374:	00813c23          	sd	s0,24(sp)
   10378:	02010413          	add	s0,sp,32
   1037c:	00050793          	mv	a5,a0
   10380:	fef407a3          	sb	a5,-17(s0)
   10384:	00100893          	li	a7,1
   10388:	00000073          	ecall
   1038c:	00000013          	nop
   10390:	01813403          	ld	s0,24(sp)
   10394:	02010113          	add	sp,sp,32
   10398:	00008067          	ret

000000000001039c <exit_proc>:
   1039c:	ff010113          	add	sp,sp,-16
   103a0:	00813423          	sd	s0,8(sp)
   103a4:	01010413          	add	s0,sp,16
   103a8:	00300893          	li	a7,3
   103ac:	00000073          	ecall
   103b0:	00000013          	nop
   103b4:	00813403          	ld	s0,8(sp)
   103b8:	01010113          	add	sp,sp,16
   103bc:	00008067          	ret

00000000000103c0 <read_char>:
   103c0:	fe010113          	add	sp,sp,-32
   103c4:	00813c23          	sd	s0,24(sp)
   103c8:	02010413          	add	s0,sp,32
   103cc:	00400893          	li	a7,4
   103d0:	00000073          	ecall
   103d4:	00050793          	mv	a5,a0
   103d8:	fef407a3          	sb	a5,-17(s0)
   103dc:	fef44783          	lbu	a5,-17(s0)
   103e0:	00078513          	mv	a0,a5
   103e4:	01813403          	ld	s0,24(sp)
   103e8:	02010113          	add	sp,sp,32
   103ec:	00008067          	ret

00000000000103f0 <read_num>:
   103f0:	fe010113          	add	sp,sp,-32
   103f4:	00813c23          	sd	s0,24(sp)
   103f8:	02010413          	add	s0,sp,32
   103fc:	00500893          	li	a7,5
   10400:	00000073          	ecall
   10404:	00050793          	mv	a5,a0
   10408:	fef43423          	sd	a5,-24(s0)
   1040c:	fe843783          	ld	a5,-24(s0)
   10410:	00078513          	mv	a0,a5
   10414:	01813403          	ld	s0,24(sp)
   10418:	02010113          	add	sp,sp,32
   1041c:	00008067          	ret

0000000000010420 <print_f>:
   10420:	fe010113          	add	sp,sp,-32
   10424:	00813c23          	sd	s0,24(sp)
   10428:	02010413          	add	s0,sp,32
   1042c:	fea42627          	fsw	fa0,-20(s0)
   10430:	00600893          	li	a7,6
   10434:	00000073          	ecall
   10438:	00000013          	nop
   1043c:	01813403          	ld	s0,24(sp)
   10440:	02010113          	add	sp,sp,32
   10444:	00008067          	ret

0000000000010448 <__extendsfdf2>:
   10448:	fe010113          	add	sp,sp,-32
   1044c:	00913423          	sd	s1,8(sp)
   10450:	00113c23          	sd	ra,24(sp)
   10454:	e00504d3          	fmv.x.w	s1,fa0
   10458:	00813823          	sd	s0,16(sp)
   1045c:	002027f3          	frrm	a5
   10460:	0174d79b          	srlw	a5,s1,0x17
   10464:	0ff7f793          	zext.b	a5,a5
   10468:	02949413          	sll	s0,s1,0x29
   1046c:	00178693          	add	a3,a5,1
   10470:	02945713          	srl	a4,s0,0x29
   10474:	01f4d49b          	srlw	s1,s1,0x1f
   10478:	0fe6f693          	and	a3,a3,254
   1047c:	00070413          	mv	s0,a4
   10480:	03f49493          	sll	s1,s1,0x3f
   10484:	00068e63          	beqz	a3,104a0 <__extendsfdf2+0x58>
   10488:	38078793          	add	a5,a5,896
   1048c:	03479793          	sll	a5,a5,0x34
   10490:	01d71413          	sll	s0,a4,0x1d
   10494:	0087e7b3          	or	a5,a5,s0
   10498:	00f4e533          	or	a0,s1,a5
   1049c:	03c0006f          	j	104d8 <__extendsfdf2+0x90>
   104a0:	04079663          	bnez	a5,104ec <__extendsfdf2+0xa4>
   104a4:	00048513          	mv	a0,s1
   104a8:	02070863          	beqz	a4,104d8 <__extendsfdf2+0x90>
   104ac:	00070513          	mv	a0,a4
   104b0:	390000ef          	jal	10840 <__clzdi2>
   104b4:	ff55079b          	addw	a5,a0,-11
   104b8:	00f41433          	sll	s0,s0,a5
   104bc:	3a900793          	li	a5,937
   104c0:	00c41413          	sll	s0,s0,0xc
   104c4:	40a7853b          	subw	a0,a5,a0
   104c8:	03451513          	sll	a0,a0,0x34
   104cc:	00c45413          	srl	s0,s0,0xc
   104d0:	00a46433          	or	s0,s0,a0
   104d4:	00946533          	or	a0,s0,s1
   104d8:	01813083          	ld	ra,24(sp)
   104dc:	01013403          	ld	s0,16(sp)
   104e0:	00813483          	ld	s1,8(sp)
   104e4:	02010113          	add	sp,sp,32
   104e8:	00008067          	ret
   104ec:	00071863          	bnez	a4,104fc <__extendsfdf2+0xb4>
   104f0:	7ff00793          	li	a5,2047
   104f4:	03479793          	sll	a5,a5,0x34
   104f8:	fa1ff06f          	j	10498 <__extendsfdf2+0x50>
   104fc:	00100793          	li	a5,1
   10500:	03379793          	sll	a5,a5,0x33
   10504:	01d71413          	sll	s0,a4,0x1d
   10508:	00f46433          	or	s0,s0,a5
   1050c:	7ff00793          	li	a5,2047
   10510:	03479793          	sll	a5,a5,0x34
   10514:	00f46433          	or	s0,s0,a5
   10518:	004007b7          	lui	a5,0x400
   1051c:	fff78793          	add	a5,a5,-1 # 3fffff <__BSS_END__+0x3da47f>
   10520:	00e7b7b3          	sltu	a5,a5,a4
   10524:	0017c793          	xor	a5,a5,1
   10528:	0047979b          	sllw	a5,a5,0x4
   1052c:	00946533          	or	a0,s0,s1
   10530:	fa0784e3          	beqz	a5,104d8 <__extendsfdf2+0x90>
   10534:	00186073          	csrs	fflags,16
   10538:	fa1ff06f          	j	104d8 <__extendsfdf2+0x90>

000000000001053c <__truncdfsf2>:
   1053c:	00202873          	frrm	a6
   10540:	03455693          	srl	a3,a0,0x34
   10544:	7ff6f693          	and	a3,a3,2047
   10548:	00168593          	add	a1,a3,1
   1054c:	00c51793          	sll	a5,a0,0xc
   10550:	7fe5f593          	and	a1,a1,2046
   10554:	00c7d613          	srl	a2,a5,0xc
   10558:	0008081b          	sext.w	a6,a6
   1055c:	03f55713          	srl	a4,a0,0x3f
   10560:	0097d793          	srl	a5,a5,0x9
   10564:	10058463          	beqz	a1,1066c <__truncdfsf2+0x130>
   10568:	c8068693          	add	a3,a3,-896
   1056c:	0fe00593          	li	a1,254
   10570:	06d5d463          	bge	a1,a3,105d8 <__truncdfsf2+0x9c>
   10574:	2a080263          	beqz	a6,10818 <__truncdfsf2+0x2dc>
   10578:	00300793          	li	a5,3
   1057c:	04f81063          	bne	a6,a5,105bc <__truncdfsf2+0x80>
   10580:	2a070c63          	beqz	a4,10838 <__truncdfsf2+0x2fc>
   10584:	fff00793          	li	a5,-1
   10588:	00500613          	li	a2,5
   1058c:	0fe00693          	li	a3,254
   10590:	040005b7          	lui	a1,0x4000
   10594:	00b7f5b3          	and	a1,a5,a1
   10598:	08058863          	beqz	a1,10628 <__truncdfsf2+0xec>
   1059c:	00168693          	add	a3,a3,1
   105a0:	0ff00593          	li	a1,255
   105a4:	20b68863          	beq	a3,a1,107b4 <__truncdfsf2+0x278>
   105a8:	fc0005b7          	lui	a1,0xfc000
   105ac:	fff58593          	add	a1,a1,-1 # fffffffffbffffff <__BSS_END__+0xfffffffffbfda47f>
   105b0:	00f5f7b3          	and	a5,a1,a5
   105b4:	0037d793          	srl	a5,a5,0x3
   105b8:	13c0006f          	j	106f4 <__truncdfsf2+0x1b8>
   105bc:	00200793          	li	a5,2
   105c0:	00f81463          	bne	a6,a5,105c8 <__truncdfsf2+0x8c>
   105c4:	24071463          	bnez	a4,1080c <__truncdfsf2+0x2d0>
   105c8:	fff00793          	li	a5,-1
   105cc:	0fe00693          	li	a3,254
   105d0:	00500613          	li	a2,5
   105d4:	fbdff06f          	j	10590 <__truncdfsf2+0x54>
   105d8:	06d04663          	bgtz	a3,10644 <__truncdfsf2+0x108>
   105dc:	fe900613          	li	a2,-23
   105e0:	08c6ca63          	blt	a3,a2,10674 <__truncdfsf2+0x138>
   105e4:	00100613          	li	a2,1
   105e8:	03761613          	sll	a2,a2,0x37
   105ec:	00c7e7b3          	or	a5,a5,a2
   105f0:	01e00613          	li	a2,30
   105f4:	40d6063b          	subw	a2,a2,a3
   105f8:	0226869b          	addw	a3,a3,34
   105fc:	00c7d633          	srl	a2,a5,a2
   10600:	00d797b3          	sll	a5,a5,a3
   10604:	00f037b3          	snez	a5,a5
   10608:	00f667b3          	or	a5,a2,a5
   1060c:	00179693          	sll	a3,a5,0x1
   10610:	0076f613          	and	a2,a3,7
   10614:	06061463          	bnez	a2,1067c <__truncdfsf2+0x140>
   10618:	0077f613          	and	a2,a5,7
   1061c:	00000693          	li	a3,0
   10620:	00100593          	li	a1,1
   10624:	06061e63          	bnez	a2,106a0 <__truncdfsf2+0x164>
   10628:	0ff00593          	li	a1,255
   1062c:	0037d793          	srl	a5,a5,0x3
   10630:	0cb69263          	bne	a3,a1,106f4 <__truncdfsf2+0x1b8>
   10634:	0c078063          	beqz	a5,106f4 <__truncdfsf2+0x1b8>
   10638:	004007b7          	lui	a5,0x400
   1063c:	00000713          	li	a4,0
   10640:	0b40006f          	j	106f4 <__truncdfsf2+0x1b8>
   10644:	02661613          	sll	a2,a2,0x26
   10648:	00c03633          	snez	a2,a2
   1064c:	01d7d793          	srl	a5,a5,0x1d
   10650:	00c7e7b3          	or	a5,a5,a2
   10654:	0077f613          	and	a2,a5,7
   10658:	00000593          	li	a1,0
   1065c:	04061263          	bnez	a2,106a0 <__truncdfsf2+0x164>
   10660:	0037d793          	srl	a5,a5,0x3
   10664:	00000613          	li	a2,0
   10668:	08c0006f          	j	106f4 <__truncdfsf2+0x1b8>
   1066c:	06069063          	bnez	a3,106cc <__truncdfsf2+0x190>
   10670:	18078863          	beqz	a5,10800 <__truncdfsf2+0x2c4>
   10674:	00100793          	li	a5,1
   10678:	00200693          	li	a3,2
   1067c:	00200593          	li	a1,2
   10680:	0077f613          	and	a2,a5,7
   10684:	0eb80463          	beq	a6,a1,1076c <__truncdfsf2+0x230>
   10688:	00300593          	li	a1,3
   1068c:	0ab80863          	beq	a6,a1,1073c <__truncdfsf2+0x200>
   10690:	08080463          	beqz	a6,10718 <__truncdfsf2+0x1dc>
   10694:	00000693          	li	a3,0
   10698:	00100593          	li	a1,1
   1069c:	08060c63          	beqz	a2,10734 <__truncdfsf2+0x1f8>
   106a0:	00200613          	li	a2,2
   106a4:	0ec80c63          	beq	a6,a2,1079c <__truncdfsf2+0x260>
   106a8:	00300613          	li	a2,3
   106ac:	0cc80e63          	beq	a6,a2,10788 <__truncdfsf2+0x24c>
   106b0:	0e081c63          	bnez	a6,107a8 <__truncdfsf2+0x26c>
   106b4:	00f7f613          	and	a2,a5,15
   106b8:	00400513          	li	a0,4
   106bc:	0aa61c63          	bne	a2,a0,10774 <__truncdfsf2+0x238>
   106c0:	00100613          	li	a2,1
   106c4:	f60582e3          	beqz	a1,10628 <__truncdfsf2+0xec>
   106c8:	06c0006f          	j	10734 <__truncdfsf2+0x1f8>
   106cc:	14078e63          	beqz	a5,10828 <__truncdfsf2+0x2ec>
   106d0:	7ff00713          	li	a4,2047
   106d4:	00000613          	li	a2,0
   106d8:	00e69863          	bne	a3,a4,106e8 <__truncdfsf2+0x1ac>
   106dc:	0367d793          	srl	a5,a5,0x36
   106e0:	0017c793          	xor	a5,a5,1
   106e4:	00479613          	sll	a2,a5,0x4
   106e8:	00000713          	li	a4,0
   106ec:	0ff00693          	li	a3,255
   106f0:	004007b7          	lui	a5,0x400
   106f4:	0ff6f693          	zext.b	a3,a3
   106f8:	02979793          	sll	a5,a5,0x29
   106fc:	0176969b          	sllw	a3,a3,0x17
   10700:	0297d793          	srl	a5,a5,0x29
   10704:	00d7e7b3          	or	a5,a5,a3
   10708:	01f7171b          	sllw	a4,a4,0x1f
   1070c:	00f76733          	or	a4,a4,a5
   10710:	0e060a63          	beqz	a2,10804 <__truncdfsf2+0x2c8>
   10714:	0d40006f          	j	107e8 <__truncdfsf2+0x2ac>
   10718:	00f6f513          	and	a0,a3,15
   1071c:	00400593          	li	a1,4
   10720:	00468693          	add	a3,a3,4
   10724:	02b51063          	bne	a0,a1,10744 <__truncdfsf2+0x208>
   10728:	00000693          	li	a3,0
   1072c:	00100593          	li	a1,1
   10730:	f6061ce3          	bnez	a2,106a8 <__truncdfsf2+0x16c>
   10734:	00300613          	li	a2,3
   10738:	ef1ff06f          	j	10628 <__truncdfsf2+0xec>
   1073c:	f4071ce3          	bnez	a4,10694 <__truncdfsf2+0x158>
   10740:	00868693          	add	a3,a3,8
   10744:	080005b7          	lui	a1,0x8000
   10748:	00b6f533          	and	a0,a3,a1
   1074c:	00153593          	seqz	a1,a0
   10750:	00000693          	li	a3,0
   10754:	f40616e3          	bnez	a2,106a0 <__truncdfsf2+0x164>
   10758:	00300613          	li	a2,3
   1075c:	ec0506e3          	beqz	a0,10628 <__truncdfsf2+0xec>
   10760:	0037d793          	srl	a5,a5,0x3
   10764:	00100613          	li	a2,1
   10768:	f8dff06f          	j	106f4 <__truncdfsf2+0x1b8>
   1076c:	fc071ae3          	bnez	a4,10740 <__truncdfsf2+0x204>
   10770:	f25ff06f          	j	10694 <__truncdfsf2+0x158>
   10774:	00478793          	add	a5,a5,4 # 400004 <__BSS_END__+0x3da484>
   10778:	00100613          	li	a2,1
   1077c:	e0058ae3          	beqz	a1,10590 <__truncdfsf2+0x54>
   10780:	0025e613          	or	a2,a1,2
   10784:	e0dff06f          	j	10590 <__truncdfsf2+0x54>
   10788:	00070c63          	beqz	a4,107a0 <__truncdfsf2+0x264>
   1078c:	00100613          	li	a2,1
   10790:	e00580e3          	beqz	a1,10590 <__truncdfsf2+0x54>
   10794:	00100593          	li	a1,1
   10798:	fe9ff06f          	j	10780 <__truncdfsf2+0x244>
   1079c:	fc070ee3          	beqz	a4,10778 <__truncdfsf2+0x23c>
   107a0:	00878793          	add	a5,a5,8
   107a4:	fd5ff06f          	j	10778 <__truncdfsf2+0x23c>
   107a8:	00100613          	li	a2,1
   107ac:	fc059ae3          	bnez	a1,10780 <__truncdfsf2+0x244>
   107b0:	de1ff06f          	j	10590 <__truncdfsf2+0x54>
   107b4:	00566613          	or	a2,a2,5
   107b8:	02080c63          	beqz	a6,107f0 <__truncdfsf2+0x2b4>
   107bc:	00300793          	li	a5,3
   107c0:	00f81c63          	bne	a6,a5,107d8 <__truncdfsf2+0x29c>
   107c4:	02070663          	beqz	a4,107f0 <__truncdfsf2+0x2b4>
   107c8:	01f7179b          	sllw	a5,a4,0x1f
   107cc:	7f800737          	lui	a4,0x7f800
   107d0:	fff7071b          	addw	a4,a4,-1 # 7f7fffff <__BSS_END__+0x7f7da47f>
   107d4:	0240006f          	j	107f8 <__truncdfsf2+0x2bc>
   107d8:	00200793          	li	a5,2
   107dc:	fef816e3          	bne	a6,a5,107c8 <__truncdfsf2+0x28c>
   107e0:	00071863          	bnez	a4,107f0 <__truncdfsf2+0x2b4>
   107e4:	7401a703          	lw	a4,1856(gp) # 25ac0 <mask+0x18>
   107e8:	00162073          	csrs	fflags,a2
   107ec:	0180006f          	j	10804 <__truncdfsf2+0x2c8>
   107f0:	01f7171b          	sllw	a4,a4,0x1f
   107f4:	7f8007b7          	lui	a5,0x7f800
   107f8:	00f76733          	or	a4,a4,a5
   107fc:	fedff06f          	j	107e8 <__truncdfsf2+0x2ac>
   10800:	01f7171b          	sllw	a4,a4,0x1f
   10804:	f0070553          	fmv.w.x	fa0,a4
   10808:	00008067          	ret
   1080c:	ff800737          	lui	a4,0xff800
   10810:	00500613          	li	a2,5
   10814:	fd5ff06f          	j	107e8 <__truncdfsf2+0x2ac>
   10818:	01f7171b          	sllw	a4,a4,0x1f
   1081c:	7f8007b7          	lui	a5,0x7f800
   10820:	00f76733          	or	a4,a4,a5
   10824:	fedff06f          	j	10810 <__truncdfsf2+0x2d4>
   10828:	01f7171b          	sllw	a4,a4,0x1f
   1082c:	7f8007b7          	lui	a5,0x7f800
   10830:	00f76733          	or	a4,a4,a5
   10834:	fd1ff06f          	j	10804 <__truncdfsf2+0x2c8>
   10838:	7f800737          	lui	a4,0x7f800
   1083c:	fd5ff06f          	j	10810 <__truncdfsf2+0x2d4>

0000000000010840 <__clzdi2>:
   10840:	03855793          	srl	a5,a0,0x38
   10844:	04079063          	bnez	a5,10884 <__clzdi2+0x44>
   10848:	03800793          	li	a5,56
   1084c:	ff878793          	add	a5,a5,-8 # 7f7ffff8 <__BSS_END__+0x7f7da478>
   10850:	00078863          	beqz	a5,10860 <__clzdi2+0x20>
   10854:	00f55733          	srl	a4,a0,a5
   10858:	0ff77713          	zext.b	a4,a4
   1085c:	fe0708e3          	beqz	a4,1084c <__clzdi2+0xc>
   10860:	00023737          	lui	a4,0x23
   10864:	04000693          	li	a3,64
   10868:	40f686b3          	sub	a3,a3,a5
   1086c:	00f55533          	srl	a0,a0,a5
   10870:	a4870793          	add	a5,a4,-1464 # 22a48 <__clz_tab>
   10874:	00a787b3          	add	a5,a5,a0
   10878:	0007c503          	lbu	a0,0(a5)
   1087c:	40a6853b          	subw	a0,a3,a0
   10880:	00008067          	ret
   10884:	03800793          	li	a5,56
   10888:	fd9ff06f          	j	10860 <__clzdi2+0x20>

000000000001088c <__libc_init_array>:
   1088c:	fe010113          	add	sp,sp,-32
   10890:	00813823          	sd	s0,16(sp)
   10894:	000257b7          	lui	a5,0x25
   10898:	00025437          	lui	s0,0x25
   1089c:	01213023          	sd	s2,0(sp)
   108a0:	96878793          	add	a5,a5,-1688 # 24968 <__init_array_start>
   108a4:	96840713          	add	a4,s0,-1688 # 24968 <__init_array_start>
   108a8:	00113c23          	sd	ra,24(sp)
   108ac:	00913423          	sd	s1,8(sp)
   108b0:	40e78933          	sub	s2,a5,a4
   108b4:	02e78263          	beq	a5,a4,108d8 <__libc_init_array+0x4c>
   108b8:	40395913          	sra	s2,s2,0x3
   108bc:	96840413          	add	s0,s0,-1688
   108c0:	00000493          	li	s1,0
   108c4:	00043783          	ld	a5,0(s0)
   108c8:	00148493          	add	s1,s1,1
   108cc:	00840413          	add	s0,s0,8
   108d0:	000780e7          	jalr	a5
   108d4:	ff24e8e3          	bltu	s1,s2,108c4 <__libc_init_array+0x38>
   108d8:	00025437          	lui	s0,0x25
   108dc:	000257b7          	lui	a5,0x25
   108e0:	97878793          	add	a5,a5,-1672 # 24978 <__do_global_dtors_aux_fini_array_entry>
   108e4:	96840713          	add	a4,s0,-1688 # 24968 <__init_array_start>
   108e8:	40e78933          	sub	s2,a5,a4
   108ec:	40395913          	sra	s2,s2,0x3
   108f0:	02e78063          	beq	a5,a4,10910 <__libc_init_array+0x84>
   108f4:	96840413          	add	s0,s0,-1688
   108f8:	00000493          	li	s1,0
   108fc:	00043783          	ld	a5,0(s0)
   10900:	00148493          	add	s1,s1,1
   10904:	00840413          	add	s0,s0,8
   10908:	000780e7          	jalr	a5
   1090c:	ff24e8e3          	bltu	s1,s2,108fc <__libc_init_array+0x70>
   10910:	01813083          	ld	ra,24(sp)
   10914:	01013403          	ld	s0,16(sp)
   10918:	00813483          	ld	s1,8(sp)
   1091c:	00013903          	ld	s2,0(sp)
   10920:	02010113          	add	sp,sp,32
   10924:	00008067          	ret

0000000000010928 <memset>:
   10928:	00f00313          	li	t1,15
   1092c:	00050713          	mv	a4,a0
   10930:	02c37a63          	bgeu	t1,a2,10964 <memset+0x3c>
   10934:	00f77793          	and	a5,a4,15
   10938:	0a079063          	bnez	a5,109d8 <memset+0xb0>
   1093c:	06059e63          	bnez	a1,109b8 <memset+0x90>
   10940:	ff067693          	and	a3,a2,-16
   10944:	00f67613          	and	a2,a2,15
   10948:	00e686b3          	add	a3,a3,a4
   1094c:	00b73023          	sd	a1,0(a4)
   10950:	00b73423          	sd	a1,8(a4)
   10954:	01070713          	add	a4,a4,16
   10958:	fed76ae3          	bltu	a4,a3,1094c <memset+0x24>
   1095c:	00061463          	bnez	a2,10964 <memset+0x3c>
   10960:	00008067          	ret
   10964:	40c306b3          	sub	a3,t1,a2
   10968:	00269693          	sll	a3,a3,0x2
   1096c:	00000297          	auipc	t0,0x0
   10970:	005686b3          	add	a3,a3,t0
   10974:	00c68067          	jr	12(a3)
   10978:	00b70723          	sb	a1,14(a4)
   1097c:	00b706a3          	sb	a1,13(a4)
   10980:	00b70623          	sb	a1,12(a4)
   10984:	00b705a3          	sb	a1,11(a4)
   10988:	00b70523          	sb	a1,10(a4)
   1098c:	00b704a3          	sb	a1,9(a4)
   10990:	00b70423          	sb	a1,8(a4)
   10994:	00b703a3          	sb	a1,7(a4)
   10998:	00b70323          	sb	a1,6(a4)
   1099c:	00b702a3          	sb	a1,5(a4)
   109a0:	00b70223          	sb	a1,4(a4)
   109a4:	00b701a3          	sb	a1,3(a4)
   109a8:	00b70123          	sb	a1,2(a4)
   109ac:	00b700a3          	sb	a1,1(a4)
   109b0:	00b70023          	sb	a1,0(a4)
   109b4:	00008067          	ret
   109b8:	0ff5f593          	zext.b	a1,a1
   109bc:	00859693          	sll	a3,a1,0x8
   109c0:	00d5e5b3          	or	a1,a1,a3
   109c4:	01059693          	sll	a3,a1,0x10
   109c8:	00d5e5b3          	or	a1,a1,a3
   109cc:	02059693          	sll	a3,a1,0x20
   109d0:	00d5e5b3          	or	a1,a1,a3
   109d4:	f6dff06f          	j	10940 <memset+0x18>
   109d8:	00279693          	sll	a3,a5,0x2
   109dc:	00000297          	auipc	t0,0x0
   109e0:	005686b3          	add	a3,a3,t0
   109e4:	00008293          	mv	t0,ra
   109e8:	f98680e7          	jalr	-104(a3)
   109ec:	00028093          	mv	ra,t0
   109f0:	ff078793          	add	a5,a5,-16
   109f4:	40f70733          	sub	a4,a4,a5
   109f8:	00f60633          	add	a2,a2,a5
   109fc:	f6c374e3          	bgeu	t1,a2,10964 <memset+0x3c>
   10a00:	f3dff06f          	j	1093c <memset+0x14>

0000000000010a04 <_printf_r>:
   10a04:	fb010113          	add	sp,sp,-80
   10a08:	02c13023          	sd	a2,32(sp)
   10a0c:	02d13423          	sd	a3,40(sp)
   10a10:	02e13823          	sd	a4,48(sp)
   10a14:	02f13c23          	sd	a5,56(sp)
   10a18:	05013023          	sd	a6,64(sp)
   10a1c:	05113423          	sd	a7,72(sp)
   10a20:	00058613          	mv	a2,a1
   10a24:	01053583          	ld	a1,16(a0)
   10a28:	02010693          	add	a3,sp,32
   10a2c:	00113c23          	sd	ra,24(sp)
   10a30:	00d13423          	sd	a3,8(sp)
   10a34:	05c000ef          	jal	10a90 <_vfprintf_r>
   10a38:	01813083          	ld	ra,24(sp)
   10a3c:	05010113          	add	sp,sp,80
   10a40:	00008067          	ret

0000000000010a44 <printf>:
   10a44:	7581b303          	ld	t1,1880(gp) # 25ad8 <_impure_ptr>
   10a48:	fa010113          	add	sp,sp,-96
   10a4c:	02c13823          	sd	a2,48(sp)
   10a50:	02d13c23          	sd	a3,56(sp)
   10a54:	02b13423          	sd	a1,40(sp)
   10a58:	04e13023          	sd	a4,64(sp)
   10a5c:	04f13423          	sd	a5,72(sp)
   10a60:	05013823          	sd	a6,80(sp)
   10a64:	05113c23          	sd	a7,88(sp)
   10a68:	01033583          	ld	a1,16(t1) # 101e8 <main+0x4>
   10a6c:	02810693          	add	a3,sp,40
   10a70:	00050613          	mv	a2,a0
   10a74:	00030513          	mv	a0,t1
   10a78:	00113c23          	sd	ra,24(sp)
   10a7c:	00d13423          	sd	a3,8(sp)
   10a80:	010000ef          	jal	10a90 <_vfprintf_r>
   10a84:	01813083          	ld	ra,24(sp)
   10a88:	06010113          	add	sp,sp,96
   10a8c:	00008067          	ret

0000000000010a90 <_vfprintf_r>:
   10a90:	d9010113          	add	sp,sp,-624
   10a94:	26113423          	sd	ra,616(sp)
   10a98:	26813023          	sd	s0,608(sp)
   10a9c:	25213823          	sd	s2,592(sp)
   10aa0:	00b13023          	sd	a1,0(sp)
   10aa4:	00060913          	mv	s2,a2
   10aa8:	02d13023          	sd	a3,32(sp)
   10aac:	24913c23          	sd	s1,600(sp)
   10ab0:	25313423          	sd	s3,584(sp)
   10ab4:	25413023          	sd	s4,576(sp)
   10ab8:	23513c23          	sd	s5,568(sp)
   10abc:	23613823          	sd	s6,560(sp)
   10ac0:	23713423          	sd	s7,552(sp)
   10ac4:	23813023          	sd	s8,544(sp)
   10ac8:	21913c23          	sd	s9,536(sp)
   10acc:	21a13823          	sd	s10,528(sp)
   10ad0:	21b13423          	sd	s11,520(sp)
   10ad4:	00050413          	mv	s0,a0
   10ad8:	04a13823          	sd	a0,80(sp)
   10adc:	22c060ef          	jal	16d08 <_localeconv_r>
   10ae0:	00053783          	ld	a5,0(a0)
   10ae4:	00078513          	mv	a0,a5
   10ae8:	06f13023          	sd	a5,96(sp)
   10aec:	6b8080ef          	jal	191a4 <strlen>
   10af0:	04a13c23          	sd	a0,88(sp)
   10af4:	0e013823          	sd	zero,240(sp)
   10af8:	0e013c23          	sd	zero,248(sp)
   10afc:	00040663          	beqz	s0,10b08 <_vfprintf_r+0x78>
   10b00:	05042703          	lw	a4,80(s0)
   10b04:	5e070a63          	beqz	a4,110f8 <_vfprintf_r+0x668>
   10b08:	00013783          	ld	a5,0(sp)
   10b0c:	01079703          	lh	a4,16(a5)
   10b10:	03271693          	sll	a3,a4,0x32
   10b14:	0206c663          	bltz	a3,10b40 <_vfprintf_r+0xb0>
   10b18:	0ac7a683          	lw	a3,172(a5)
   10b1c:	00002637          	lui	a2,0x2
   10b20:	00c76733          	or	a4,a4,a2
   10b24:	ffffe637          	lui	a2,0xffffe
   10b28:	0107171b          	sllw	a4,a4,0x10
   10b2c:	fff60613          	add	a2,a2,-1 # ffffffffffffdfff <__BSS_END__+0xfffffffffffd847f>
   10b30:	4107571b          	sraw	a4,a4,0x10
   10b34:	00c6f6b3          	and	a3,a3,a2
   10b38:	00e79823          	sh	a4,16(a5)
   10b3c:	0ad7a623          	sw	a3,172(a5)
   10b40:	00877693          	and	a3,a4,8
   10b44:	32068263          	beqz	a3,10e68 <_vfprintf_r+0x3d8>
   10b48:	00013783          	ld	a5,0(sp)
   10b4c:	0187b683          	ld	a3,24(a5)
   10b50:	30068c63          	beqz	a3,10e68 <_vfprintf_r+0x3d8>
   10b54:	01a77713          	and	a4,a4,26
   10b58:	00a00693          	li	a3,10
   10b5c:	32d70a63          	beq	a4,a3,10e90 <_vfprintf_r+0x400>
   10b60:	18010793          	add	a5,sp,384
   10b64:	00023737          	lui	a4,0x23
   10b68:	00078313          	mv	t1,a5
   10b6c:	10f13023          	sd	a5,256(sp)
   10b70:	00090b13          	mv	s6,s2
   10b74:	cf070793          	add	a5,a4,-784 # 22cf0 <__clz_tab+0x2a8>
   10b78:	00023737          	lui	a4,0x23
   10b7c:	02f13423          	sd	a5,40(sp)
   10b80:	ef870793          	add	a5,a4,-264 # 22ef8 <zeroes.0>
   10b84:	000b4703          	lbu	a4,0(s6)
   10b88:	10013823          	sd	zero,272(sp)
   10b8c:	10012423          	sw	zero,264(sp)
   10b90:	02013c23          	sd	zero,56(sp)
   10b94:	06013423          	sd	zero,104(sp)
   10b98:	06013823          	sd	zero,112(sp)
   10b9c:	08013023          	sd	zero,128(sp)
   10ba0:	08013423          	sd	zero,136(sp)
   10ba4:	06013c23          	sd	zero,120(sp)
   10ba8:	00013823          	sd	zero,16(sp)
   10bac:	00f13423          	sd	a5,8(sp)
   10bb0:	05013983          	ld	s3,80(sp)
   10bb4:	00030413          	mv	s0,t1
   10bb8:	24070063          	beqz	a4,10df8 <_vfprintf_r+0x368>
   10bbc:	000b0493          	mv	s1,s6
   10bc0:	02500693          	li	a3,37
   10bc4:	2ed70a63          	beq	a4,a3,10eb8 <_vfprintf_r+0x428>
   10bc8:	0014c703          	lbu	a4,1(s1)
   10bcc:	00148493          	add	s1,s1,1
   10bd0:	fe071ae3          	bnez	a4,10bc4 <_vfprintf_r+0x134>
   10bd4:	4164893b          	subw	s2,s1,s6
   10bd8:	22090063          	beqz	s2,10df8 <_vfprintf_r+0x368>
   10bdc:	11013b83          	ld	s7,272(sp)
   10be0:	10812683          	lw	a3,264(sp)
   10be4:	01643023          	sd	s6,0(s0)
   10be8:	012b8733          	add	a4,s7,s2
   10bec:	0016861b          	addw	a2,a3,1
   10bf0:	01243423          	sd	s2,8(s0)
   10bf4:	10e13823          	sd	a4,272(sp)
   10bf8:	10c12423          	sw	a2,264(sp)
   10bfc:	00700713          	li	a4,7
   10c00:	01040413          	add	s0,s0,16
   10c04:	2cc74263          	blt	a4,a2,10ec8 <_vfprintf_r+0x438>
   10c08:	01013783          	ld	a5,16(sp)
   10c0c:	0004c703          	lbu	a4,0(s1)
   10c10:	012787bb          	addw	a5,a5,s2
   10c14:	00f13823          	sd	a5,16(sp)
   10c18:	1e070063          	beqz	a4,10df8 <_vfprintf_r+0x368>
   10c1c:	fff00313          	li	t1,-1
   10c20:	0014ce03          	lbu	t3,1(s1)
   10c24:	0c0107a3          	sb	zero,207(sp)
   10c28:	00148493          	add	s1,s1,1
   10c2c:	00000a13          	li	s4,0
   10c30:	00000913          	li	s2,0
   10c34:	05a00b93          	li	s7,90
   10c38:	00030a93          	mv	s5,t1
   10c3c:	00148493          	add	s1,s1,1
   10c40:	000e0d1b          	sext.w	s10,t3
   10c44:	fe0d079b          	addw	a5,s10,-32
   10c48:	0007871b          	sext.w	a4,a5
   10c4c:	04ebec63          	bltu	s7,a4,10ca4 <_vfprintf_r+0x214>
   10c50:	02079713          	sll	a4,a5,0x20
   10c54:	01e75793          	srl	a5,a4,0x1e
   10c58:	02813703          	ld	a4,40(sp)
   10c5c:	00e787b3          	add	a5,a5,a4
   10c60:	0007a783          	lw	a5,0(a5)
   10c64:	00078067          	jr	a5
   10c68:	00000a13          	li	s4,0
   10c6c:	00900693          	li	a3,9
   10c70:	0004c703          	lbu	a4,0(s1)
   10c74:	002a179b          	sllw	a5,s4,0x2
   10c78:	01478a3b          	addw	s4,a5,s4
   10c7c:	fd0d0d1b          	addw	s10,s10,-48
   10c80:	001a1a1b          	sllw	s4,s4,0x1
   10c84:	fd07079b          	addw	a5,a4,-48
   10c88:	014d0a3b          	addw	s4,s10,s4
   10c8c:	00148493          	add	s1,s1,1
   10c90:	00070d1b          	sext.w	s10,a4
   10c94:	fcf6fee3          	bgeu	a3,a5,10c70 <_vfprintf_r+0x1e0>
   10c98:	fe0d079b          	addw	a5,s10,-32
   10c9c:	0007871b          	sext.w	a4,a5
   10ca0:	faebf8e3          	bgeu	s7,a4,10c50 <_vfprintf_r+0x1c0>
   10ca4:	140d0a63          	beqz	s10,10df8 <_vfprintf_r+0x368>
   10ca8:	11a10c23          	sb	s10,280(sp)
   10cac:	0c0107a3          	sb	zero,207(sp)
   10cb0:	00100c13          	li	s8,1
   10cb4:	00100d93          	li	s11,1
   10cb8:	11810b13          	add	s6,sp,280
   10cbc:	00013c23          	sd	zero,24(sp)
   10cc0:	00000313          	li	t1,0
   10cc4:	04013423          	sd	zero,72(sp)
   10cc8:	04013023          	sd	zero,64(sp)
   10ccc:	02013823          	sd	zero,48(sp)
   10cd0:	00297c93          	and	s9,s2,2
   10cd4:	000c8463          	beqz	s9,10cdc <_vfprintf_r+0x24c>
   10cd8:	002c0c1b          	addw	s8,s8,2
   10cdc:	08497a93          	and	s5,s2,132
   10ce0:	000a9663          	bnez	s5,10cec <_vfprintf_r+0x25c>
   10ce4:	418a073b          	subw	a4,s4,s8
   10ce8:	34e04ee3          	bgtz	a4,11844 <_vfprintf_r+0xdb4>
   10cec:	0cf14703          	lbu	a4,207(sp)
   10cf0:	11013b83          	ld	s7,272(sp)
   10cf4:	02070c63          	beqz	a4,10d2c <_vfprintf_r+0x29c>
   10cf8:	10812603          	lw	a2,264(sp)
   10cfc:	0cf10593          	add	a1,sp,207
   10d00:	00b43023          	sd	a1,0(s0)
   10d04:	0016061b          	addw	a2,a2,1
   10d08:	00100593          	li	a1,1
   10d0c:	001b8b93          	add	s7,s7,1
   10d10:	00b43423          	sd	a1,8(s0)
   10d14:	10c12423          	sw	a2,264(sp)
   10d18:	0006059b          	sext.w	a1,a2
   10d1c:	11713823          	sd	s7,272(sp)
   10d20:	00700613          	li	a2,7
   10d24:	01040413          	add	s0,s0,16
   10d28:	2ab64463          	blt	a2,a1,10fd0 <_vfprintf_r+0x540>
   10d2c:	020c8c63          	beqz	s9,10d64 <_vfprintf_r+0x2d4>
   10d30:	10812603          	lw	a2,264(sp)
   10d34:	00200593          	li	a1,2
   10d38:	002b8b93          	add	s7,s7,2
   10d3c:	0016061b          	addw	a2,a2,1
   10d40:	0d010793          	add	a5,sp,208
   10d44:	00b43423          	sd	a1,8(s0)
   10d48:	00f43023          	sd	a5,0(s0)
   10d4c:	0006059b          	sext.w	a1,a2
   10d50:	10c12423          	sw	a2,264(sp)
   10d54:	11713823          	sd	s7,272(sp)
   10d58:	00700613          	li	a2,7
   10d5c:	01040413          	add	s0,s0,16
   10d60:	40b642e3          	blt	a2,a1,11964 <_vfprintf_r+0xed4>
   10d64:	08000613          	li	a2,128
   10d68:	0eca84e3          	beq	s5,a2,11650 <_vfprintf_r+0xbc0>
   10d6c:	41b30cbb          	subw	s9,t1,s11
   10d70:	1d9044e3          	bgtz	s9,11738 <_vfprintf_r+0xca8>
   10d74:	10097613          	and	a2,s2,256
   10d78:	70061c63          	bnez	a2,11490 <_vfprintf_r+0xa00>
   10d7c:	10812603          	lw	a2,264(sp)
   10d80:	017d8733          	add	a4,s11,s7
   10d84:	01643023          	sd	s6,0(s0)
   10d88:	0016069b          	addw	a3,a2,1
   10d8c:	01b43423          	sd	s11,8(s0)
   10d90:	10e13823          	sd	a4,272(sp)
   10d94:	10d12423          	sw	a3,264(sp)
   10d98:	00700793          	li	a5,7
   10d9c:	32d7ce63          	blt	a5,a3,110d8 <_vfprintf_r+0x648>
   10da0:	01040413          	add	s0,s0,16
   10da4:	00497913          	and	s2,s2,4
   10da8:	00090663          	beqz	s2,10db4 <_vfprintf_r+0x324>
   10dac:	418a093b          	subw	s2,s4,s8
   10db0:	3d204ee3          	bgtz	s2,1198c <_vfprintf_r+0xefc>
   10db4:	000a0793          	mv	a5,s4
   10db8:	018a5463          	bge	s4,s8,10dc0 <_vfprintf_r+0x330>
   10dbc:	000c0793          	mv	a5,s8
   10dc0:	01013683          	ld	a3,16(sp)
   10dc4:	00d787bb          	addw	a5,a5,a3
   10dc8:	00f13823          	sd	a5,16(sp)
   10dcc:	240718e3          	bnez	a4,1181c <_vfprintf_r+0xd8c>
   10dd0:	01813783          	ld	a5,24(sp)
   10dd4:	10012423          	sw	zero,264(sp)
   10dd8:	00078863          	beqz	a5,10de8 <_vfprintf_r+0x358>
   10ddc:	01813583          	ld	a1,24(sp)
   10de0:	00098513          	mv	a0,s3
   10de4:	62d020ef          	jal	13c10 <_free_r>
   10de8:	18010413          	add	s0,sp,384
   10dec:	00048b13          	mv	s6,s1
   10df0:	000b4703          	lbu	a4,0(s6)
   10df4:	dc0714e3          	bnez	a4,10bbc <_vfprintf_r+0x12c>
   10df8:	11013783          	ld	a5,272(sp)
   10dfc:	00078463          	beqz	a5,10e04 <_vfprintf_r+0x374>
   10e00:	1cd0106f          	j	127cc <_vfprintf_r+0x1d3c>
   10e04:	00013783          	ld	a5,0(sp)
   10e08:	0107d783          	lhu	a5,16(a5)
   10e0c:	0407f793          	and	a5,a5,64
   10e10:	00078463          	beqz	a5,10e18 <_vfprintf_r+0x388>
   10e14:	6fd0106f          	j	12d10 <_vfprintf_r+0x2280>
   10e18:	26813083          	ld	ra,616(sp)
   10e1c:	26013403          	ld	s0,608(sp)
   10e20:	01013503          	ld	a0,16(sp)
   10e24:	25813483          	ld	s1,600(sp)
   10e28:	25013903          	ld	s2,592(sp)
   10e2c:	24813983          	ld	s3,584(sp)
   10e30:	24013a03          	ld	s4,576(sp)
   10e34:	23813a83          	ld	s5,568(sp)
   10e38:	23013b03          	ld	s6,560(sp)
   10e3c:	22813b83          	ld	s7,552(sp)
   10e40:	22013c03          	ld	s8,544(sp)
   10e44:	21813c83          	ld	s9,536(sp)
   10e48:	21013d03          	ld	s10,528(sp)
   10e4c:	20813d83          	ld	s11,520(sp)
   10e50:	27010113          	add	sp,sp,624
   10e54:	00008067          	ret
   10e58:	01096913          	or	s2,s2,16
   10e5c:	0004ce03          	lbu	t3,0(s1)
   10e60:	0009091b          	sext.w	s2,s2
   10e64:	dd9ff06f          	j	10c3c <_vfprintf_r+0x1ac>
   10e68:	00013583          	ld	a1,0(sp)
   10e6c:	05013503          	ld	a0,80(sp)
   10e70:	2f8020ef          	jal	13168 <__swsetup_r>
   10e74:	00050463          	beqz	a0,10e7c <_vfprintf_r+0x3ec>
   10e78:	6990106f          	j	12d10 <_vfprintf_r+0x2280>
   10e7c:	00013783          	ld	a5,0(sp)
   10e80:	00a00693          	li	a3,10
   10e84:	01079703          	lh	a4,16(a5)
   10e88:	01a77713          	and	a4,a4,26
   10e8c:	ccd71ae3          	bne	a4,a3,10b60 <_vfprintf_r+0xd0>
   10e90:	00013783          	ld	a5,0(sp)
   10e94:	01279703          	lh	a4,18(a5)
   10e98:	cc0744e3          	bltz	a4,10b60 <_vfprintf_r+0xd0>
   10e9c:	02013683          	ld	a3,32(sp)
   10ea0:	05013503          	ld	a0,80(sp)
   10ea4:	00090613          	mv	a2,s2
   10ea8:	00078593          	mv	a1,a5
   10eac:	1f0020ef          	jal	1309c <__sbprintf>
   10eb0:	00a13823          	sd	a0,16(sp)
   10eb4:	f65ff06f          	j	10e18 <_vfprintf_r+0x388>
   10eb8:	4164893b          	subw	s2,s1,s6
   10ebc:	d20910e3          	bnez	s2,10bdc <_vfprintf_r+0x14c>
   10ec0:	0004c703          	lbu	a4,0(s1)
   10ec4:	d55ff06f          	j	10c18 <_vfprintf_r+0x188>
   10ec8:	00013583          	ld	a1,0(sp)
   10ecc:	10010613          	add	a2,sp,256
   10ed0:	00098513          	mv	a0,s3
   10ed4:	2e10a0ef          	jal	1b9b4 <__sprint_r>
   10ed8:	f20516e3          	bnez	a0,10e04 <_vfprintf_r+0x374>
   10edc:	18010413          	add	s0,sp,384
   10ee0:	d29ff06f          	j	10c08 <_vfprintf_r+0x178>
   10ee4:	00897713          	and	a4,s2,8
   10ee8:	000a8313          	mv	t1,s5
   10eec:	6e071ce3          	bnez	a4,11de4 <_vfprintf_r+0x1354>
   10ef0:	02013783          	ld	a5,32(sp)
   10ef4:	01513c23          	sd	s5,24(sp)
   10ef8:	0007b503          	ld	a0,0(a5)
   10efc:	00878a93          	add	s5,a5,8
   10f00:	03513023          	sd	s5,32(sp)
   10f04:	65c110ef          	jal	22560 <__extenddftf2>
   10f08:	01813303          	ld	t1,24(sp)
   10f0c:	00050713          	mv	a4,a0
   10f10:	0f010513          	add	a0,sp,240
   10f14:	00613c23          	sd	t1,24(sp)
   10f18:	0ee13823          	sd	a4,240(sp)
   10f1c:	0eb13c23          	sd	a1,248(sp)
   10f20:	579050ef          	jal	16c98 <_ldcheck>
   10f24:	0ca12c23          	sw	a0,216(sp)
   10f28:	00200713          	li	a4,2
   10f2c:	01813303          	ld	t1,24(sp)
   10f30:	00e51463          	bne	a0,a4,10f38 <_vfprintf_r+0x4a8>
   10f34:	2280106f          	j	1215c <_vfprintf_r+0x16cc>
   10f38:	00100713          	li	a4,1
   10f3c:	00e51463          	bne	a0,a4,10f44 <_vfprintf_r+0x4b4>
   10f40:	3600106f          	j	122a0 <_vfprintf_r+0x1810>
   10f44:	06100713          	li	a4,97
   10f48:	00ed1463          	bne	s10,a4,10f50 <_vfprintf_r+0x4c0>
   10f4c:	4850106f          	j	12bd0 <_vfprintf_r+0x2140>
   10f50:	04100713          	li	a4,65
   10f54:	00ed1463          	bne	s10,a4,10f5c <_vfprintf_r+0x4cc>
   10f58:	0c50106f          	j	1281c <_vfprintf_r+0x1d8c>
   10f5c:	fff00713          	li	a4,-1
   10f60:	00e31463          	bne	t1,a4,10f68 <_vfprintf_r+0x4d8>
   10f64:	7cd0106f          	j	12f30 <_vfprintf_r+0x24a0>
   10f68:	fdfd7713          	and	a4,s10,-33
   10f6c:	04700693          	li	a3,71
   10f70:	00d71463          	bne	a4,a3,10f78 <_vfprintf_r+0x4e8>
   10f74:	7ad0106f          	j	12f20 <_vfprintf_r+0x2490>
   10f78:	10096713          	or	a4,s2,256
   10f7c:	0f813c83          	ld	s9,248(sp)
   10f80:	0007079b          	sext.w	a5,a4
   10f84:	08f13823          	sd	a5,144(sp)
   10f88:	05213023          	sd	s2,64(sp)
   10f8c:	0f013c03          	ld	s8,240(sp)
   10f90:	000cd463          	bgez	s9,10f98 <_vfprintf_r+0x508>
   10f94:	3f10106f          	j	12b84 <_vfprintf_r+0x20f4>
   10f98:	08013c23          	sd	zero,152(sp)
   10f9c:	00013c23          	sd	zero,24(sp)
   10fa0:	fbfd071b          	addw	a4,s10,-65
   10fa4:	0007061b          	sext.w	a2,a4
   10fa8:	02500693          	li	a3,37
   10fac:	00c6f463          	bgeu	a3,a2,10fb4 <_vfprintf_r+0x524>
   10fb0:	5bc0106f          	j	1256c <_vfprintf_r+0x1adc>
   10fb4:	02071693          	sll	a3,a4,0x20
   10fb8:	01e6d713          	srl	a4,a3,0x1e
   10fbc:	000236b7          	lui	a3,0x23
   10fc0:	e5c68693          	add	a3,a3,-420 # 22e5c <__clz_tab+0x414>
   10fc4:	00d70733          	add	a4,a4,a3
   10fc8:	00072703          	lw	a4,0(a4)
   10fcc:	00070067          	jr	a4
   10fd0:	00013583          	ld	a1,0(sp)
   10fd4:	10010613          	add	a2,sp,256
   10fd8:	00098513          	mv	a0,s3
   10fdc:	08613823          	sd	t1,144(sp)
   10fe0:	1d50a0ef          	jal	1b9b4 <__sprint_r>
   10fe4:	040516e3          	bnez	a0,11830 <_vfprintf_r+0xda0>
   10fe8:	11013b83          	ld	s7,272(sp)
   10fec:	09013303          	ld	t1,144(sp)
   10ff0:	18010413          	add	s0,sp,384
   10ff4:	d39ff06f          	j	10d2c <_vfprintf_r+0x29c>
   10ff8:	03813783          	ld	a5,56(sp)
   10ffc:	00100693          	li	a3,1
   11000:	01040c93          	add	s9,s0,16
   11004:	3cf6d2e3          	bge	a3,a5,11bc8 <_vfprintf_r+0x1138>
   11008:	10812603          	lw	a2,264(sp)
   1100c:	00100693          	li	a3,1
   11010:	001b8713          	add	a4,s7,1
   11014:	0016061b          	addw	a2,a2,1
   11018:	00d43423          	sd	a3,8(s0)
   1101c:	10c12423          	sw	a2,264(sp)
   11020:	0006069b          	sext.w	a3,a2
   11024:	01643023          	sd	s6,0(s0)
   11028:	10e13823          	sd	a4,272(sp)
   1102c:	00700613          	li	a2,7
   11030:	78d642e3          	blt	a2,a3,11fb4 <_vfprintf_r+0x1524>
   11034:	05813783          	ld	a5,88(sp)
   11038:	0016841b          	addw	s0,a3,1
   1103c:	10812423          	sw	s0,264(sp)
   11040:	00e78d33          	add	s10,a5,a4
   11044:	06013703          	ld	a4,96(sp)
   11048:	00fcb423          	sd	a5,8(s9)
   1104c:	11a13823          	sd	s10,272(sp)
   11050:	00ecb023          	sd	a4,0(s9)
   11054:	00700713          	li	a4,7
   11058:	010c8c93          	add	s9,s9,16
   1105c:	76874ee3          	blt	a4,s0,11fd8 <_vfprintf_r+0x1548>
   11060:	0f013503          	ld	a0,240(sp)
   11064:	0f813583          	ld	a1,248(sp)
   11068:	00000613          	li	a2,0
   1106c:	00000693          	li	a3,0
   11070:	39d0f0ef          	jal	20c0c <__eqtf2>
   11074:	03813783          	ld	a5,56(sp)
   11078:	fff78d9b          	addw	s11,a5,-1
   1107c:	3a0500e3          	beqz	a0,11c1c <_vfprintf_r+0x118c>
   11080:	001b0793          	add	a5,s6,1
   11084:	0014041b          	addw	s0,s0,1
   11088:	01bd0d33          	add	s10,s10,s11
   1108c:	00fcb023          	sd	a5,0(s9)
   11090:	01bcb423          	sd	s11,8(s9)
   11094:	11a13823          	sd	s10,272(sp)
   11098:	10812423          	sw	s0,264(sp)
   1109c:	00700793          	li	a5,7
   110a0:	3487cce3          	blt	a5,s0,11bf8 <_vfprintf_r+0x1168>
   110a4:	010c8c93          	add	s9,s9,16
   110a8:	07013683          	ld	a3,112(sp)
   110ac:	0014041b          	addw	s0,s0,1
   110b0:	0e010793          	add	a5,sp,224
   110b4:	01a68733          	add	a4,a3,s10
   110b8:	00fcb023          	sd	a5,0(s9)
   110bc:	00dcb423          	sd	a3,8(s9)
   110c0:	10812423          	sw	s0,264(sp)
   110c4:	0004069b          	sext.w	a3,s0
   110c8:	10e13823          	sd	a4,272(sp)
   110cc:	00700793          	li	a5,7
   110d0:	010c8413          	add	s0,s9,16
   110d4:	ccd7d8e3          	bge	a5,a3,10da4 <_vfprintf_r+0x314>
   110d8:	00013583          	ld	a1,0(sp)
   110dc:	10010613          	add	a2,sp,256
   110e0:	00098513          	mv	a0,s3
   110e4:	0d10a0ef          	jal	1b9b4 <__sprint_r>
   110e8:	74051463          	bnez	a0,11830 <_vfprintf_r+0xda0>
   110ec:	11013703          	ld	a4,272(sp)
   110f0:	18010413          	add	s0,sp,384
   110f4:	cb1ff06f          	j	10da4 <_vfprintf_r+0x314>
   110f8:	05013503          	ld	a0,80(sp)
   110fc:	13d020ef          	jal	13a38 <__sinit>
   11100:	a09ff06f          	j	10b08 <_vfprintf_r+0x78>
   11104:	02013703          	ld	a4,32(sp)
   11108:	0c0107a3          	sb	zero,207(sp)
   1110c:	00100c13          	li	s8,1
   11110:	00072783          	lw	a5,0(a4)
   11114:	00870713          	add	a4,a4,8
   11118:	02e13023          	sd	a4,32(sp)
   1111c:	10f10c23          	sb	a5,280(sp)
   11120:	00100d93          	li	s11,1
   11124:	11810b13          	add	s6,sp,280
   11128:	b95ff06f          	j	10cbc <_vfprintf_r+0x22c>
   1112c:	02013783          	ld	a5,32(sp)
   11130:	0c0107a3          	sb	zero,207(sp)
   11134:	000a8313          	mv	t1,s5
   11138:	0007bb03          	ld	s6,0(a5)
   1113c:	00878a93          	add	s5,a5,8
   11140:	5c0b02e3          	beqz	s6,11f04 <_vfprintf_r+0x1474>
   11144:	fff00713          	li	a4,-1
   11148:	00e31463          	bne	t1,a4,11150 <_vfprintf_r+0x6c0>
   1114c:	0f40106f          	j	12240 <_vfprintf_r+0x17b0>
   11150:	00030613          	mv	a2,t1
   11154:	00000593          	li	a1,0
   11158:	000b0513          	mv	a0,s6
   1115c:	02613023          	sd	t1,32(sp)
   11160:	76c060ef          	jal	178cc <memchr>
   11164:	00a13c23          	sd	a0,24(sp)
   11168:	02013303          	ld	t1,32(sp)
   1116c:	00051463          	bnez	a0,11174 <_vfprintf_r+0x6e4>
   11170:	2ed0106f          	j	12c5c <_vfprintf_r+0x21cc>
   11174:	01813783          	ld	a5,24(sp)
   11178:	41678dbb          	subw	s11,a5,s6
   1117c:	0cf14703          	lbu	a4,207(sp)
   11180:	fffdc813          	not	a6,s11
   11184:	43f85813          	sra	a6,a6,0x3f
   11188:	03513023          	sd	s5,32(sp)
   1118c:	00013c23          	sd	zero,24(sp)
   11190:	04013423          	sd	zero,72(sp)
   11194:	04013023          	sd	zero,64(sp)
   11198:	02013823          	sd	zero,48(sp)
   1119c:	01b87c33          	and	s8,a6,s11
   111a0:	00000313          	li	t1,0
   111a4:	b20706e3          	beqz	a4,10cd0 <_vfprintf_r+0x240>
   111a8:	001c0c1b          	addw	s8,s8,1
   111ac:	b25ff06f          	j	10cd0 <_vfprintf_r+0x240>
   111b0:	02013783          	ld	a5,32(sp)
   111b4:	0007aa03          	lw	s4,0(a5)
   111b8:	00878793          	add	a5,a5,8
   111bc:	3a0a5ae3          	bgez	s4,11d70 <_vfprintf_r+0x12e0>
   111c0:	41400a3b          	negw	s4,s4
   111c4:	02f13023          	sd	a5,32(sp)
   111c8:	00496913          	or	s2,s2,4
   111cc:	0004ce03          	lbu	t3,0(s1)
   111d0:	0009091b          	sext.w	s2,s2
   111d4:	a69ff06f          	j	10c3c <_vfprintf_r+0x1ac>
   111d8:	02b00793          	li	a5,43
   111dc:	0004ce03          	lbu	t3,0(s1)
   111e0:	0cf107a3          	sb	a5,207(sp)
   111e4:	a59ff06f          	j	10c3c <_vfprintf_r+0x1ac>
   111e8:	08096913          	or	s2,s2,128
   111ec:	0004ce03          	lbu	t3,0(s1)
   111f0:	0009091b          	sext.w	s2,s2
   111f4:	a49ff06f          	j	10c3c <_vfprintf_r+0x1ac>
   111f8:	0004cd03          	lbu	s10,0(s1)
   111fc:	02a00693          	li	a3,42
   11200:	00148793          	add	a5,s1,1
   11204:	00dd1463          	bne	s10,a3,1120c <_vfprintf_r+0x77c>
   11208:	6310106f          	j	13038 <_vfprintf_r+0x25a8>
   1120c:	fd0d071b          	addw	a4,s10,-48
   11210:	00900613          	li	a2,9
   11214:	00078493          	mv	s1,a5
   11218:	00000a93          	li	s5,0
   1121c:	00900693          	li	a3,9
   11220:	a2e662e3          	bltu	a2,a4,10c44 <_vfprintf_r+0x1b4>
   11224:	0004cd03          	lbu	s10,0(s1)
   11228:	002a979b          	sllw	a5,s5,0x2
   1122c:	0157833b          	addw	t1,a5,s5
   11230:	0013131b          	sllw	t1,t1,0x1
   11234:	00e30abb          	addw	s5,t1,a4
   11238:	fd0d071b          	addw	a4,s10,-48
   1123c:	00148493          	add	s1,s1,1
   11240:	fee6f2e3          	bgeu	a3,a4,11224 <_vfprintf_r+0x794>
   11244:	a01ff06f          	j	10c44 <_vfprintf_r+0x1b4>
   11248:	00098513          	mv	a0,s3
   1124c:	2bd050ef          	jal	16d08 <_localeconv_r>
   11250:	00853783          	ld	a5,8(a0)
   11254:	00078513          	mv	a0,a5
   11258:	06f13c23          	sd	a5,120(sp)
   1125c:	749070ef          	jal	191a4 <strlen>
   11260:	00050793          	mv	a5,a0
   11264:	00098513          	mv	a0,s3
   11268:	00078c13          	mv	s8,a5
   1126c:	08f13423          	sd	a5,136(sp)
   11270:	299050ef          	jal	16d08 <_localeconv_r>
   11274:	01053783          	ld	a5,16(a0)
   11278:	0004ce03          	lbu	t3,0(s1)
   1127c:	08f13023          	sd	a5,128(sp)
   11280:	9a0c0ee3          	beqz	s8,10c3c <_vfprintf_r+0x1ac>
   11284:	9a078ce3          	beqz	a5,10c3c <_vfprintf_r+0x1ac>
   11288:	0007c783          	lbu	a5,0(a5)
   1128c:	9a0788e3          	beqz	a5,10c3c <_vfprintf_r+0x1ac>
   11290:	40096913          	or	s2,s2,1024
   11294:	0009091b          	sext.w	s2,s2
   11298:	9a5ff06f          	j	10c3c <_vfprintf_r+0x1ac>
   1129c:	00196913          	or	s2,s2,1
   112a0:	0004ce03          	lbu	t3,0(s1)
   112a4:	0009091b          	sext.w	s2,s2
   112a8:	995ff06f          	j	10c3c <_vfprintf_r+0x1ac>
   112ac:	0cf14783          	lbu	a5,207(sp)
   112b0:	0004ce03          	lbu	t3,0(s1)
   112b4:	980794e3          	bnez	a5,10c3c <_vfprintf_r+0x1ac>
   112b8:	02000793          	li	a5,32
   112bc:	0cf107a3          	sb	a5,207(sp)
   112c0:	97dff06f          	j	10c3c <_vfprintf_r+0x1ac>
   112c4:	01096c93          	or	s9,s2,16
   112c8:	000a8313          	mv	t1,s5
   112cc:	000c8c9b          	sext.w	s9,s9
   112d0:	02013683          	ld	a3,32(sp)
   112d4:	020cf793          	and	a5,s9,32
   112d8:	00868713          	add	a4,a3,8
   112dc:	240780e3          	beqz	a5,11d1c <_vfprintf_r+0x128c>
   112e0:	0006bb83          	ld	s7,0(a3)
   112e4:	00100793          	li	a5,1
   112e8:	02e13023          	sd	a4,32(sp)
   112ec:	00000713          	li	a4,0
   112f0:	0ce107a3          	sb	a4,207(sp)
   112f4:	fff00713          	li	a4,-1
   112f8:	2ae30863          	beq	t1,a4,115a8 <_vfprintf_r+0xb18>
   112fc:	f7fcf913          	and	s2,s9,-129
   11300:	0009091b          	sext.w	s2,s2
   11304:	2a0b9063          	bnez	s7,115a4 <_vfprintf_r+0xb14>
   11308:	2e031e63          	bnez	t1,11604 <_vfprintf_r+0xb74>
   1130c:	22079ee3          	bnez	a5,11d48 <_vfprintf_r+0x12b8>
   11310:	001cfd93          	and	s11,s9,1
   11314:	17c10b13          	add	s6,sp,380
   11318:	260d92e3          	bnez	s11,11d7c <_vfprintf_r+0x12ec>
   1131c:	0cf14703          	lbu	a4,207(sp)
   11320:	000d8813          	mv	a6,s11
   11324:	006dd463          	bge	s11,t1,1132c <_vfprintf_r+0x89c>
   11328:	00030813          	mv	a6,t1
   1132c:	00013c23          	sd	zero,24(sp)
   11330:	04013423          	sd	zero,72(sp)
   11334:	04013023          	sd	zero,64(sp)
   11338:	02013823          	sd	zero,48(sp)
   1133c:	00080c1b          	sext.w	s8,a6
   11340:	e60714e3          	bnez	a4,111a8 <_vfprintf_r+0x718>
   11344:	98dff06f          	j	10cd0 <_vfprintf_r+0x240>
   11348:	00896913          	or	s2,s2,8
   1134c:	0004ce03          	lbu	t3,0(s1)
   11350:	0009091b          	sext.w	s2,s2
   11354:	8e9ff06f          	j	10c3c <_vfprintf_r+0x1ac>
   11358:	01096913          	or	s2,s2,16
   1135c:	000a8313          	mv	t1,s5
   11360:	0009091b          	sext.w	s2,s2
   11364:	02013683          	ld	a3,32(sp)
   11368:	02097793          	and	a5,s2,32
   1136c:	00868713          	add	a4,a3,8
   11370:	140784e3          	beqz	a5,11cb8 <_vfprintf_r+0x1228>
   11374:	0006b783          	ld	a5,0(a3)
   11378:	00078b93          	mv	s7,a5
   1137c:	1607c2e3          	bltz	a5,11ce0 <_vfprintf_r+0x1250>
   11380:	fff00793          	li	a5,-1
   11384:	5af30c63          	beq	t1,a5,1193c <_vfprintf_r+0xeac>
   11388:	f7f97c93          	and	s9,s2,-129
   1138c:	000c8c9b          	sext.w	s9,s9
   11390:	5c0b92e3          	bnez	s7,12154 <_vfprintf_r+0x16c4>
   11394:	00030463          	beqz	t1,1139c <_vfprintf_r+0x90c>
   11398:	3810106f          	j	12f18 <_vfprintf_r+0x2488>
   1139c:	00000d93          	li	s11,0
   113a0:	02e13023          	sd	a4,32(sp)
   113a4:	000c8913          	mv	s2,s9
   113a8:	17c10b13          	add	s6,sp,380
   113ac:	f71ff06f          	j	1131c <_vfprintf_r+0x88c>
   113b0:	01096913          	or	s2,s2,16
   113b4:	000a8313          	mv	t1,s5
   113b8:	0009091b          	sext.w	s2,s2
   113bc:	02013683          	ld	a3,32(sp)
   113c0:	02097793          	and	a5,s2,32
   113c4:	00868713          	add	a4,a3,8
   113c8:	120788e3          	beqz	a5,11cf8 <_vfprintf_r+0x1268>
   113cc:	0006bb83          	ld	s7,0(a3)
   113d0:	bff97c93          	and	s9,s2,-1025
   113d4:	000c8c9b          	sext.w	s9,s9
   113d8:	02e13023          	sd	a4,32(sp)
   113dc:	00000793          	li	a5,0
   113e0:	f0dff06f          	j	112ec <_vfprintf_r+0x85c>
   113e4:	02096913          	or	s2,s2,32
   113e8:	0004ce03          	lbu	t3,0(s1)
   113ec:	0009091b          	sext.w	s2,s2
   113f0:	84dff06f          	j	10c3c <_vfprintf_r+0x1ac>
   113f4:	02013703          	ld	a4,32(sp)
   113f8:	02097793          	and	a5,s2,32
   113fc:	00073703          	ld	a4,0(a4)
   11400:	1a078ee3          	beqz	a5,11dbc <_vfprintf_r+0x132c>
   11404:	01013783          	ld	a5,16(sp)
   11408:	00f73023          	sd	a5,0(a4)
   1140c:	02013783          	ld	a5,32(sp)
   11410:	00048b13          	mv	s6,s1
   11414:	00878793          	add	a5,a5,8
   11418:	02f13023          	sd	a5,32(sp)
   1141c:	9d5ff06f          	j	10df0 <_vfprintf_r+0x360>
   11420:	0004ce03          	lbu	t3,0(s1)
   11424:	06c00793          	li	a5,108
   11428:	2cfe04e3          	beq	t3,a5,11ef0 <_vfprintf_r+0x1460>
   1142c:	01096913          	or	s2,s2,16
   11430:	0009091b          	sext.w	s2,s2
   11434:	809ff06f          	j	10c3c <_vfprintf_r+0x1ac>
   11438:	0004ce03          	lbu	t3,0(s1)
   1143c:	06800793          	li	a5,104
   11440:	28fe0ae3          	beq	t3,a5,11ed4 <_vfprintf_r+0x1444>
   11444:	04096913          	or	s2,s2,64
   11448:	0009091b          	sext.w	s2,s2
   1144c:	ff0ff06f          	j	10c3c <_vfprintf_r+0x1ac>
   11450:	02013703          	ld	a4,32(sp)
   11454:	ffff87b7          	lui	a5,0xffff8
   11458:	8307c793          	xor	a5,a5,-2000
   1145c:	0cf11823          	sh	a5,208(sp)
   11460:	00870793          	add	a5,a4,8
   11464:	02f13023          	sd	a5,32(sp)
   11468:	000237b7          	lui	a5,0x23
   1146c:	b8078793          	add	a5,a5,-1152 # 22b80 <__clz_tab+0x138>
   11470:	00296c93          	or	s9,s2,2
   11474:	06f13423          	sd	a5,104(sp)
   11478:	00073b83          	ld	s7,0(a4)
   1147c:	000a8313          	mv	t1,s5
   11480:	000c8c9b          	sext.w	s9,s9
   11484:	00200793          	li	a5,2
   11488:	07800d13          	li	s10,120
   1148c:	e61ff06f          	j	112ec <_vfprintf_r+0x85c>
   11490:	06500693          	li	a3,101
   11494:	b7a6d2e3          	bge	a3,s10,10ff8 <_vfprintf_r+0x568>
   11498:	0f013503          	ld	a0,240(sp)
   1149c:	0f813583          	ld	a1,248(sp)
   114a0:	00000613          	li	a2,0
   114a4:	00000693          	li	a3,0
   114a8:	7640f0ef          	jal	20c0c <__eqtf2>
   114ac:	58051863          	bnez	a0,11a3c <_vfprintf_r+0xfac>
   114b0:	10812783          	lw	a5,264(sp)
   114b4:	000236b7          	lui	a3,0x23
   114b8:	ba068693          	add	a3,a3,-1120 # 22ba0 <__clz_tab+0x158>
   114bc:	0017879b          	addw	a5,a5,1
   114c0:	00d43023          	sd	a3,0(s0)
   114c4:	001b8b93          	add	s7,s7,1
   114c8:	00100693          	li	a3,1
   114cc:	00d43423          	sd	a3,8(s0)
   114d0:	10f12423          	sw	a5,264(sp)
   114d4:	0007869b          	sext.w	a3,a5
   114d8:	11713823          	sd	s7,272(sp)
   114dc:	00700793          	li	a5,7
   114e0:	01040413          	add	s0,s0,16
   114e4:	42d7c4e3          	blt	a5,a3,1210c <_vfprintf_r+0x167c>
   114e8:	0d812783          	lw	a5,216(sp)
   114ec:	03813703          	ld	a4,56(sp)
   114f0:	06e7d2e3          	bge	a5,a4,11d54 <_vfprintf_r+0x12c4>
   114f4:	05813683          	ld	a3,88(sp)
   114f8:	10812783          	lw	a5,264(sp)
   114fc:	06013603          	ld	a2,96(sp)
   11500:	01768733          	add	a4,a3,s7
   11504:	0017879b          	addw	a5,a5,1
   11508:	00d43423          	sd	a3,8(s0)
   1150c:	00c43023          	sd	a2,0(s0)
   11510:	0007869b          	sext.w	a3,a5
   11514:	10f12423          	sw	a5,264(sp)
   11518:	10e13823          	sd	a4,272(sp)
   1151c:	00700793          	li	a5,7
   11520:	01040413          	add	s0,s0,16
   11524:	18d7c8e3          	blt	a5,a3,11eb4 <_vfprintf_r+0x1424>
   11528:	03813783          	ld	a5,56(sp)
   1152c:	fff78c9b          	addw	s9,a5,-1
   11530:	87905ae3          	blez	s9,10da4 <_vfprintf_r+0x314>
   11534:	00023f37          	lui	t5,0x23
   11538:	01000693          	li	a3,16
   1153c:	10812783          	lw	a5,264(sp)
   11540:	ef8f0b93          	add	s7,t5,-264 # 22ef8 <zeroes.0>
   11544:	3f96d4e3          	bge	a3,s9,1212c <_vfprintf_r+0x169c>
   11548:	00013a83          	ld	s5,0(sp)
   1154c:	01000d13          	li	s10,16
   11550:	00700d93          	li	s11,7
   11554:	00c0006f          	j	11560 <_vfprintf_r+0xad0>
   11558:	ff0c8c9b          	addw	s9,s9,-16
   1155c:	3d9d58e3          	bge	s10,s9,1212c <_vfprintf_r+0x169c>
   11560:	0017879b          	addw	a5,a5,1
   11564:	01070713          	add	a4,a4,16
   11568:	01743023          	sd	s7,0(s0)
   1156c:	01a43423          	sd	s10,8(s0)
   11570:	10e13823          	sd	a4,272(sp)
   11574:	10f12423          	sw	a5,264(sp)
   11578:	01040413          	add	s0,s0,16
   1157c:	fcfddee3          	bge	s11,a5,11558 <_vfprintf_r+0xac8>
   11580:	10010613          	add	a2,sp,256
   11584:	000a8593          	mv	a1,s5
   11588:	00098513          	mv	a0,s3
   1158c:	4280a0ef          	jal	1b9b4 <__sprint_r>
   11590:	2a051063          	bnez	a0,11830 <_vfprintf_r+0xda0>
   11594:	11013703          	ld	a4,272(sp)
   11598:	10812783          	lw	a5,264(sp)
   1159c:	18010413          	add	s0,sp,384
   115a0:	fb9ff06f          	j	11558 <_vfprintf_r+0xac8>
   115a4:	00090c93          	mv	s9,s2
   115a8:	00100713          	li	a4,1
   115ac:	38e78c63          	beq	a5,a4,11944 <_vfprintf_r+0xeb4>
   115b0:	00200713          	li	a4,2
   115b4:	06e78463          	beq	a5,a4,1161c <_vfprintf_r+0xb8c>
   115b8:	17c10a93          	add	s5,sp,380
   115bc:	000a8b13          	mv	s6,s5
   115c0:	007bf713          	and	a4,s7,7
   115c4:	03070713          	add	a4,a4,48
   115c8:	feeb0fa3          	sb	a4,-1(s6)
   115cc:	003bdb93          	srl	s7,s7,0x3
   115d0:	000b0613          	mv	a2,s6
   115d4:	fffb0b13          	add	s6,s6,-1
   115d8:	fe0b94e3          	bnez	s7,115c0 <_vfprintf_r+0xb30>
   115dc:	001cf593          	and	a1,s9,1
   115e0:	06058263          	beqz	a1,11644 <_vfprintf_r+0xbb4>
   115e4:	03000593          	li	a1,48
   115e8:	04b70e63          	beq	a4,a1,11644 <_vfprintf_r+0xbb4>
   115ec:	ffe60613          	add	a2,a2,-2
   115f0:	febb0fa3          	sb	a1,-1(s6)
   115f4:	40ca8dbb          	subw	s11,s5,a2
   115f8:	000c8913          	mv	s2,s9
   115fc:	00060b13          	mv	s6,a2
   11600:	d1dff06f          	j	1131c <_vfprintf_r+0x88c>
   11604:	00100713          	li	a4,1
   11608:	00e79463          	bne	a5,a4,11610 <_vfprintf_r+0xb80>
   1160c:	6fc0106f          	j	12d08 <_vfprintf_r+0x2278>
   11610:	00200713          	li	a4,2
   11614:	00090c93          	mv	s9,s2
   11618:	fae790e3          	bne	a5,a4,115b8 <_vfprintf_r+0xb28>
   1161c:	06813703          	ld	a4,104(sp)
   11620:	17c10a93          	add	s5,sp,380
   11624:	000a8b13          	mv	s6,s5
   11628:	00fbf793          	and	a5,s7,15
   1162c:	00f707b3          	add	a5,a4,a5
   11630:	0007c783          	lbu	a5,0(a5)
   11634:	004bdb93          	srl	s7,s7,0x4
   11638:	fffb0b13          	add	s6,s6,-1
   1163c:	00fb0023          	sb	a5,0(s6)
   11640:	fe0b94e3          	bnez	s7,11628 <_vfprintf_r+0xb98>
   11644:	416a8dbb          	subw	s11,s5,s6
   11648:	000c8913          	mv	s2,s9
   1164c:	cd1ff06f          	j	1131c <_vfprintf_r+0x88c>
   11650:	418a0abb          	subw	s5,s4,s8
   11654:	f1505c63          	blez	s5,10d6c <_vfprintf_r+0x2dc>
   11658:	00023f37          	lui	t5,0x23
   1165c:	01000593          	li	a1,16
   11660:	000b8713          	mv	a4,s7
   11664:	10812603          	lw	a2,264(sp)
   11668:	ef8f0b93          	add	s7,t5,-264 # 22ef8 <zeroes.0>
   1166c:	0955de63          	bge	a1,s5,11708 <_vfprintf_r+0xc78>
   11670:	08913823          	sd	s1,144(sp)
   11674:	01000f93          	li	t6,16
   11678:	000a8493          	mv	s1,s5
   1167c:	00700c93          	li	s9,7
   11680:	000a0a93          	mv	s5,s4
   11684:	00090a13          	mv	s4,s2
   11688:	000b8913          	mv	s2,s7
   1168c:	000b0b93          	mv	s7,s6
   11690:	00030b13          	mv	s6,t1
   11694:	00c0006f          	j	116a0 <_vfprintf_r+0xc10>
   11698:	ff04849b          	addw	s1,s1,-16
   1169c:	049fd863          	bge	t6,s1,116ec <_vfprintf_r+0xc5c>
   116a0:	0016061b          	addw	a2,a2,1
   116a4:	01070713          	add	a4,a4,16
   116a8:	01243023          	sd	s2,0(s0)
   116ac:	01f43423          	sd	t6,8(s0)
   116b0:	10e13823          	sd	a4,272(sp)
   116b4:	10c12423          	sw	a2,264(sp)
   116b8:	01040413          	add	s0,s0,16
   116bc:	fcccdee3          	bge	s9,a2,11698 <_vfprintf_r+0xc08>
   116c0:	00013583          	ld	a1,0(sp)
   116c4:	10010613          	add	a2,sp,256
   116c8:	00098513          	mv	a0,s3
   116cc:	2e80a0ef          	jal	1b9b4 <__sprint_r>
   116d0:	16051063          	bnez	a0,11830 <_vfprintf_r+0xda0>
   116d4:	01000f93          	li	t6,16
   116d8:	ff04849b          	addw	s1,s1,-16
   116dc:	11013703          	ld	a4,272(sp)
   116e0:	10812603          	lw	a2,264(sp)
   116e4:	18010413          	add	s0,sp,384
   116e8:	fa9fcce3          	blt	t6,s1,116a0 <_vfprintf_r+0xc10>
   116ec:	000b0313          	mv	t1,s6
   116f0:	000b8b13          	mv	s6,s7
   116f4:	00090b93          	mv	s7,s2
   116f8:	000a0913          	mv	s2,s4
   116fc:	000a8a13          	mv	s4,s5
   11700:	00048a93          	mv	s5,s1
   11704:	09013483          	ld	s1,144(sp)
   11708:	0016059b          	addw	a1,a2,1
   1170c:	00ea8733          	add	a4,s5,a4
   11710:	01743023          	sd	s7,0(s0)
   11714:	01543423          	sd	s5,8(s0)
   11718:	10e13823          	sd	a4,272(sp)
   1171c:	10b12423          	sw	a1,264(sp)
   11720:	00700613          	li	a2,7
   11724:	6eb64863          	blt	a2,a1,11e14 <_vfprintf_r+0x1384>
   11728:	41b30cbb          	subw	s9,t1,s11
   1172c:	01040413          	add	s0,s0,16
   11730:	00070b93          	mv	s7,a4
   11734:	e5905063          	blez	s9,10d74 <_vfprintf_r+0x2e4>
   11738:	00023f37          	lui	t5,0x23
   1173c:	01000593          	li	a1,16
   11740:	000b8713          	mv	a4,s7
   11744:	10812603          	lw	a2,264(sp)
   11748:	ef8f0b93          	add	s7,t5,-264 # 22ef8 <zeroes.0>
   1174c:	0b95d263          	bge	a1,s9,117f0 <_vfprintf_r+0xd60>
   11750:	00813b83          	ld	s7,8(sp)
   11754:	01000893          	li	a7,16
   11758:	00700a93          	li	s5,7
   1175c:	000b8793          	mv	a5,s7
   11760:	000b0b93          	mv	s7,s6
   11764:	000a0b13          	mv	s6,s4
   11768:	00090a13          	mv	s4,s2
   1176c:	00048913          	mv	s2,s1
   11770:	000c8493          	mv	s1,s9
   11774:	00078c93          	mv	s9,a5
   11778:	00c0006f          	j	11784 <_vfprintf_r+0xcf4>
   1177c:	ff04849b          	addw	s1,s1,-16
   11780:	0498da63          	bge	a7,s1,117d4 <_vfprintf_r+0xd44>
   11784:	00813683          	ld	a3,8(sp)
   11788:	0016061b          	addw	a2,a2,1
   1178c:	01070713          	add	a4,a4,16
   11790:	00d43023          	sd	a3,0(s0)
   11794:	01143423          	sd	a7,8(s0)
   11798:	10e13823          	sd	a4,272(sp)
   1179c:	10c12423          	sw	a2,264(sp)
   117a0:	01040413          	add	s0,s0,16
   117a4:	fccadce3          	bge	s5,a2,1177c <_vfprintf_r+0xcec>
   117a8:	00013583          	ld	a1,0(sp)
   117ac:	10010613          	add	a2,sp,256
   117b0:	00098513          	mv	a0,s3
   117b4:	2000a0ef          	jal	1b9b4 <__sprint_r>
   117b8:	06051c63          	bnez	a0,11830 <_vfprintf_r+0xda0>
   117bc:	01000893          	li	a7,16
   117c0:	ff04849b          	addw	s1,s1,-16
   117c4:	11013703          	ld	a4,272(sp)
   117c8:	10812603          	lw	a2,264(sp)
   117cc:	18010413          	add	s0,sp,384
   117d0:	fa98cae3          	blt	a7,s1,11784 <_vfprintf_r+0xcf4>
   117d4:	000c8793          	mv	a5,s9
   117d8:	00048c93          	mv	s9,s1
   117dc:	00090493          	mv	s1,s2
   117e0:	000a0913          	mv	s2,s4
   117e4:	000b0a13          	mv	s4,s6
   117e8:	000b8b13          	mv	s6,s7
   117ec:	00078b93          	mv	s7,a5
   117f0:	0016059b          	addw	a1,a2,1
   117f4:	00ec8733          	add	a4,s9,a4
   117f8:	01743023          	sd	s7,0(s0)
   117fc:	01943423          	sd	s9,8(s0)
   11800:	10e13823          	sd	a4,272(sp)
   11804:	10b12423          	sw	a1,264(sp)
   11808:	00700613          	li	a2,7
   1180c:	48b64663          	blt	a2,a1,11c98 <_vfprintf_r+0x1208>
   11810:	01040413          	add	s0,s0,16
   11814:	00070b93          	mv	s7,a4
   11818:	d5cff06f          	j	10d74 <_vfprintf_r+0x2e4>
   1181c:	00013583          	ld	a1,0(sp)
   11820:	10010613          	add	a2,sp,256
   11824:	00098513          	mv	a0,s3
   11828:	18c0a0ef          	jal	1b9b4 <__sprint_r>
   1182c:	da050263          	beqz	a0,10dd0 <_vfprintf_r+0x340>
   11830:	01813583          	ld	a1,24(sp)
   11834:	dc058863          	beqz	a1,10e04 <_vfprintf_r+0x374>
   11838:	05013503          	ld	a0,80(sp)
   1183c:	3d4020ef          	jal	13c10 <_free_r>
   11840:	dc4ff06f          	j	10e04 <_vfprintf_r+0x374>
   11844:	000238b7          	lui	a7,0x23
   11848:	01000513          	li	a0,16
   1184c:	11013583          	ld	a1,272(sp)
   11850:	10812603          	lw	a2,264(sp)
   11854:	f0888b93          	add	s7,a7,-248 # 22f08 <blanks.1>
   11858:	08e55c63          	bge	a0,a4,118f0 <_vfprintf_r+0xe60>
   1185c:	08913823          	sd	s1,144(sp)
   11860:	00040793          	mv	a5,s0
   11864:	000b8493          	mv	s1,s7
   11868:	01000f13          	li	t5,16
   1186c:	000b0b93          	mv	s7,s6
   11870:	00700393          	li	t2,7
   11874:	00070413          	mv	s0,a4
   11878:	00030b13          	mv	s6,t1
   1187c:	00c0006f          	j	11888 <_vfprintf_r+0xdf8>
   11880:	ff04041b          	addw	s0,s0,-16
   11884:	048f5a63          	bge	t5,s0,118d8 <_vfprintf_r+0xe48>
   11888:	0016061b          	addw	a2,a2,1
   1188c:	01058593          	add	a1,a1,16 # 8000010 <__BSS_END__+0x7fda490>
   11890:	0097b023          	sd	s1,0(a5)
   11894:	01e7b423          	sd	t5,8(a5)
   11898:	10b13823          	sd	a1,272(sp)
   1189c:	10c12423          	sw	a2,264(sp)
   118a0:	01078793          	add	a5,a5,16
   118a4:	fcc3dee3          	bge	t2,a2,11880 <_vfprintf_r+0xdf0>
   118a8:	00013583          	ld	a1,0(sp)
   118ac:	10010613          	add	a2,sp,256
   118b0:	00098513          	mv	a0,s3
   118b4:	1000a0ef          	jal	1b9b4 <__sprint_r>
   118b8:	f6051ce3          	bnez	a0,11830 <_vfprintf_r+0xda0>
   118bc:	01000f13          	li	t5,16
   118c0:	ff04041b          	addw	s0,s0,-16
   118c4:	11013583          	ld	a1,272(sp)
   118c8:	10812603          	lw	a2,264(sp)
   118cc:	18010793          	add	a5,sp,384
   118d0:	00700393          	li	t2,7
   118d4:	fa8f4ae3          	blt	t5,s0,11888 <_vfprintf_r+0xdf8>
   118d8:	000b0313          	mv	t1,s6
   118dc:	000b8b13          	mv	s6,s7
   118e0:	00048b93          	mv	s7,s1
   118e4:	09013483          	ld	s1,144(sp)
   118e8:	00040713          	mv	a4,s0
   118ec:	00078413          	mv	s0,a5
   118f0:	00b705b3          	add	a1,a4,a1
   118f4:	0016061b          	addw	a2,a2,1
   118f8:	00e43423          	sd	a4,8(s0)
   118fc:	01743023          	sd	s7,0(s0)
   11900:	10b13823          	sd	a1,272(sp)
   11904:	10c12423          	sw	a2,264(sp)
   11908:	0006059b          	sext.w	a1,a2
   1190c:	00700713          	li	a4,7
   11910:	01040413          	add	s0,s0,16
   11914:	bcb75c63          	bge	a4,a1,10cec <_vfprintf_r+0x25c>
   11918:	00013583          	ld	a1,0(sp)
   1191c:	10010613          	add	a2,sp,256
   11920:	00098513          	mv	a0,s3
   11924:	08613823          	sd	t1,144(sp)
   11928:	08c0a0ef          	jal	1b9b4 <__sprint_r>
   1192c:	f00512e3          	bnez	a0,11830 <_vfprintf_r+0xda0>
   11930:	09013303          	ld	t1,144(sp)
   11934:	18010413          	add	s0,sp,384
   11938:	bb4ff06f          	j	10cec <_vfprintf_r+0x25c>
   1193c:	00090c93          	mv	s9,s2
   11940:	02e13023          	sd	a4,32(sp)
   11944:	00900793          	li	a5,9
   11948:	6b77ea63          	bltu	a5,s7,11ffc <_vfprintf_r+0x156c>
   1194c:	030b8b9b          	addw	s7,s7,48
   11950:	17710da3          	sb	s7,379(sp)
   11954:	000c8913          	mv	s2,s9
   11958:	00100d93          	li	s11,1
   1195c:	17b10b13          	add	s6,sp,379
   11960:	9bdff06f          	j	1131c <_vfprintf_r+0x88c>
   11964:	00013583          	ld	a1,0(sp)
   11968:	10010613          	add	a2,sp,256
   1196c:	00098513          	mv	a0,s3
   11970:	08613823          	sd	t1,144(sp)
   11974:	0400a0ef          	jal	1b9b4 <__sprint_r>
   11978:	ea051ce3          	bnez	a0,11830 <_vfprintf_r+0xda0>
   1197c:	11013b83          	ld	s7,272(sp)
   11980:	09013303          	ld	t1,144(sp)
   11984:	18010413          	add	s0,sp,384
   11988:	bdcff06f          	j	10d64 <_vfprintf_r+0x2d4>
   1198c:	000238b7          	lui	a7,0x23
   11990:	01000693          	li	a3,16
   11994:	10812783          	lw	a5,264(sp)
   11998:	f0888b93          	add	s7,a7,-248 # 22f08 <blanks.1>
   1199c:	0726d263          	bge	a3,s2,11a00 <_vfprintf_r+0xf70>
   119a0:	00013a83          	ld	s5,0(sp)
   119a4:	01000c93          	li	s9,16
   119a8:	00700d13          	li	s10,7
   119ac:	00c0006f          	j	119b8 <_vfprintf_r+0xf28>
   119b0:	ff09091b          	addw	s2,s2,-16
   119b4:	052cd663          	bge	s9,s2,11a00 <_vfprintf_r+0xf70>
   119b8:	0017879b          	addw	a5,a5,1
   119bc:	01070713          	add	a4,a4,16
   119c0:	01743023          	sd	s7,0(s0)
   119c4:	01943423          	sd	s9,8(s0)
   119c8:	10e13823          	sd	a4,272(sp)
   119cc:	10f12423          	sw	a5,264(sp)
   119d0:	01040413          	add	s0,s0,16
   119d4:	fcfd5ee3          	bge	s10,a5,119b0 <_vfprintf_r+0xf20>
   119d8:	10010613          	add	a2,sp,256
   119dc:	000a8593          	mv	a1,s5
   119e0:	00098513          	mv	a0,s3
   119e4:	7d1090ef          	jal	1b9b4 <__sprint_r>
   119e8:	e40514e3          	bnez	a0,11830 <_vfprintf_r+0xda0>
   119ec:	ff09091b          	addw	s2,s2,-16
   119f0:	11013703          	ld	a4,272(sp)
   119f4:	10812783          	lw	a5,264(sp)
   119f8:	18010413          	add	s0,sp,384
   119fc:	fb2ccee3          	blt	s9,s2,119b8 <_vfprintf_r+0xf28>
   11a00:	0017869b          	addw	a3,a5,1
   11a04:	01270733          	add	a4,a4,s2
   11a08:	01743023          	sd	s7,0(s0)
   11a0c:	01243423          	sd	s2,8(s0)
   11a10:	10e13823          	sd	a4,272(sp)
   11a14:	10d12423          	sw	a3,264(sp)
   11a18:	00700793          	li	a5,7
   11a1c:	b8d7dc63          	bge	a5,a3,10db4 <_vfprintf_r+0x324>
   11a20:	00013583          	ld	a1,0(sp)
   11a24:	10010613          	add	a2,sp,256
   11a28:	00098513          	mv	a0,s3
   11a2c:	789090ef          	jal	1b9b4 <__sprint_r>
   11a30:	e00510e3          	bnez	a0,11830 <_vfprintf_r+0xda0>
   11a34:	11013703          	ld	a4,272(sp)
   11a38:	b7cff06f          	j	10db4 <_vfprintf_r+0x324>
   11a3c:	0d812603          	lw	a2,216(sp)
   11a40:	62c05663          	blez	a2,1206c <_vfprintf_r+0x15dc>
   11a44:	03813783          	ld	a5,56(sp)
   11a48:	03013703          	ld	a4,48(sp)
   11a4c:	00fb0ab3          	add	s5,s6,a5
   11a50:	00070693          	mv	a3,a4
   11a54:	3ae7c863          	blt	a5,a4,11e04 <_vfprintf_r+0x1374>
   11a58:	00068d1b          	sext.w	s10,a3
   11a5c:	03a05663          	blez	s10,11a88 <_vfprintf_r+0xff8>
   11a60:	10812603          	lw	a2,264(sp)
   11a64:	01ab8bb3          	add	s7,s7,s10
   11a68:	01643023          	sd	s6,0(s0)
   11a6c:	0016059b          	addw	a1,a2,1
   11a70:	01a43423          	sd	s10,8(s0)
   11a74:	11713823          	sd	s7,272(sp)
   11a78:	10b12423          	sw	a1,264(sp)
   11a7c:	00700613          	li	a2,7
   11a80:	01040413          	add	s0,s0,16
   11a84:	4cb640e3          	blt	a2,a1,12744 <_vfprintf_r+0x1cb4>
   11a88:	fffd4613          	not	a2,s10
   11a8c:	03013783          	ld	a5,48(sp)
   11a90:	43f65613          	sra	a2,a2,0x3f
   11a94:	00cd76b3          	and	a3,s10,a2
   11a98:	40d78d3b          	subw	s10,a5,a3
   11a9c:	49a04663          	bgtz	s10,11f28 <_vfprintf_r+0x1498>
   11aa0:	03013783          	ld	a5,48(sp)
   11aa4:	40097693          	and	a3,s2,1024
   11aa8:	00fb0b33          	add	s6,s6,a5
   11aac:	040690e3          	bnez	a3,122ec <_vfprintf_r+0x185c>
   11ab0:	0d812683          	lw	a3,216(sp)
   11ab4:	03813783          	ld	a5,56(sp)
   11ab8:	00f6c663          	blt	a3,a5,11ac4 <_vfprintf_r+0x1034>
   11abc:	00197613          	and	a2,s2,1
   11ac0:	4a0606e3          	beqz	a2,1276c <_vfprintf_r+0x1cdc>
   11ac4:	10812603          	lw	a2,264(sp)
   11ac8:	05813783          	ld	a5,88(sp)
   11acc:	06013583          	ld	a1,96(sp)
   11ad0:	01040413          	add	s0,s0,16
   11ad4:	01778733          	add	a4,a5,s7
   11ad8:	feb43823          	sd	a1,-16(s0)
   11adc:	0016059b          	addw	a1,a2,1
   11ae0:	fef43c23          	sd	a5,-8(s0)
   11ae4:	10e13823          	sd	a4,272(sp)
   11ae8:	10b12423          	sw	a1,264(sp)
   11aec:	00700613          	li	a2,7
   11af0:	00b65463          	bge	a2,a1,11af8 <_vfprintf_r+0x1068>
   11af4:	0f40106f          	j	12be8 <_vfprintf_r+0x2158>
   11af8:	03813783          	ld	a5,56(sp)
   11afc:	416a8cb3          	sub	s9,s5,s6
   11b00:	000c859b          	sext.w	a1,s9
   11b04:	40d7863b          	subw	a2,a5,a3
   11b08:	00b65463          	bge	a2,a1,11b10 <_vfprintf_r+0x1080>
   11b0c:	00060c93          	mv	s9,a2
   11b10:	000c8c9b          	sext.w	s9,s9
   11b14:	03905863          	blez	s9,11b44 <_vfprintf_r+0x10b4>
   11b18:	10812683          	lw	a3,264(sp)
   11b1c:	01970733          	add	a4,a4,s9
   11b20:	01643023          	sd	s6,0(s0)
   11b24:	0016869b          	addw	a3,a3,1
   11b28:	01943423          	sd	s9,8(s0)
   11b2c:	10e13823          	sd	a4,272(sp)
   11b30:	10d12423          	sw	a3,264(sp)
   11b34:	00700793          	li	a5,7
   11b38:	01040413          	add	s0,s0,16
   11b3c:	00d7d463          	bge	a5,a3,11b44 <_vfprintf_r+0x10b4>
   11b40:	1480106f          	j	12c88 <_vfprintf_r+0x21f8>
   11b44:	fffcc793          	not	a5,s9
   11b48:	43f7d793          	sra	a5,a5,0x3f
   11b4c:	00fcfcb3          	and	s9,s9,a5
   11b50:	41960cbb          	subw	s9,a2,s9
   11b54:	a5905863          	blez	s9,10da4 <_vfprintf_r+0x314>
   11b58:	00023f37          	lui	t5,0x23
   11b5c:	01000693          	li	a3,16
   11b60:	10812783          	lw	a5,264(sp)
   11b64:	ef8f0b93          	add	s7,t5,-264 # 22ef8 <zeroes.0>
   11b68:	5d96d263          	bge	a3,s9,1212c <_vfprintf_r+0x169c>
   11b6c:	00013a83          	ld	s5,0(sp)
   11b70:	01000d13          	li	s10,16
   11b74:	00700d93          	li	s11,7
   11b78:	00c0006f          	j	11b84 <_vfprintf_r+0x10f4>
   11b7c:	ff0c8c9b          	addw	s9,s9,-16
   11b80:	5b9d5663          	bge	s10,s9,1212c <_vfprintf_r+0x169c>
   11b84:	0017879b          	addw	a5,a5,1
   11b88:	01070713          	add	a4,a4,16
   11b8c:	01743023          	sd	s7,0(s0)
   11b90:	01a43423          	sd	s10,8(s0)
   11b94:	10e13823          	sd	a4,272(sp)
   11b98:	10f12423          	sw	a5,264(sp)
   11b9c:	01040413          	add	s0,s0,16
   11ba0:	fcfddee3          	bge	s11,a5,11b7c <_vfprintf_r+0x10ec>
   11ba4:	10010613          	add	a2,sp,256
   11ba8:	000a8593          	mv	a1,s5
   11bac:	00098513          	mv	a0,s3
   11bb0:	605090ef          	jal	1b9b4 <__sprint_r>
   11bb4:	c6051ee3          	bnez	a0,11830 <_vfprintf_r+0xda0>
   11bb8:	11013703          	ld	a4,272(sp)
   11bbc:	10812783          	lw	a5,264(sp)
   11bc0:	18010413          	add	s0,sp,384
   11bc4:	fb9ff06f          	j	11b7c <_vfprintf_r+0x10ec>
   11bc8:	00197613          	and	a2,s2,1
   11bcc:	c2061e63          	bnez	a2,11008 <_vfprintf_r+0x578>
   11bd0:	10812603          	lw	a2,264(sp)
   11bd4:	001b8d13          	add	s10,s7,1
   11bd8:	01643023          	sd	s6,0(s0)
   11bdc:	0016079b          	addw	a5,a2,1
   11be0:	00d43423          	sd	a3,8(s0)
   11be4:	10f12423          	sw	a5,264(sp)
   11be8:	0007841b          	sext.w	s0,a5
   11bec:	11a13823          	sd	s10,272(sp)
   11bf0:	00700793          	li	a5,7
   11bf4:	ca87da63          	bge	a5,s0,110a8 <_vfprintf_r+0x618>
   11bf8:	00013583          	ld	a1,0(sp)
   11bfc:	10010613          	add	a2,sp,256
   11c00:	00098513          	mv	a0,s3
   11c04:	5b1090ef          	jal	1b9b4 <__sprint_r>
   11c08:	c20514e3          	bnez	a0,11830 <_vfprintf_r+0xda0>
   11c0c:	11013d03          	ld	s10,272(sp)
   11c10:	10812403          	lw	s0,264(sp)
   11c14:	18010c93          	add	s9,sp,384
   11c18:	c90ff06f          	j	110a8 <_vfprintf_r+0x618>
   11c1c:	03813703          	ld	a4,56(sp)
   11c20:	00100793          	li	a5,1
   11c24:	c8e7d263          	bge	a5,a4,110a8 <_vfprintf_r+0x618>
   11c28:	00023f37          	lui	t5,0x23
   11c2c:	01100793          	li	a5,17
   11c30:	ef8f0b93          	add	s7,t5,-264 # 22ef8 <zeroes.0>
   11c34:	5ee7d263          	bge	a5,a4,12218 <_vfprintf_r+0x1788>
   11c38:	00013a83          	ld	s5,0(sp)
   11c3c:	01000713          	li	a4,16
   11c40:	00700b13          	li	s6,7
   11c44:	00c0006f          	j	11c50 <_vfprintf_r+0x11c0>
   11c48:	ff0d8d9b          	addw	s11,s11,-16
   11c4c:	5db75663          	bge	a4,s11,12218 <_vfprintf_r+0x1788>
   11c50:	0014041b          	addw	s0,s0,1
   11c54:	010d0d13          	add	s10,s10,16
   11c58:	017cb023          	sd	s7,0(s9)
   11c5c:	00ecb423          	sd	a4,8(s9)
   11c60:	11a13823          	sd	s10,272(sp)
   11c64:	10812423          	sw	s0,264(sp)
   11c68:	010c8c93          	add	s9,s9,16
   11c6c:	fc8b5ee3          	bge	s6,s0,11c48 <_vfprintf_r+0x11b8>
   11c70:	10010613          	add	a2,sp,256
   11c74:	000a8593          	mv	a1,s5
   11c78:	00098513          	mv	a0,s3
   11c7c:	539090ef          	jal	1b9b4 <__sprint_r>
   11c80:	ba0518e3          	bnez	a0,11830 <_vfprintf_r+0xda0>
   11c84:	11013d03          	ld	s10,272(sp)
   11c88:	10812403          	lw	s0,264(sp)
   11c8c:	18010c93          	add	s9,sp,384
   11c90:	01000713          	li	a4,16
   11c94:	fb5ff06f          	j	11c48 <_vfprintf_r+0x11b8>
   11c98:	00013583          	ld	a1,0(sp)
   11c9c:	10010613          	add	a2,sp,256
   11ca0:	00098513          	mv	a0,s3
   11ca4:	511090ef          	jal	1b9b4 <__sprint_r>
   11ca8:	b80514e3          	bnez	a0,11830 <_vfprintf_r+0xda0>
   11cac:	11013b83          	ld	s7,272(sp)
   11cb0:	18010413          	add	s0,sp,384
   11cb4:	8c0ff06f          	j	10d74 <_vfprintf_r+0x2e4>
   11cb8:	01097793          	and	a5,s2,16
   11cbc:	0e079863          	bnez	a5,11dac <_vfprintf_r+0x131c>
   11cc0:	02013683          	ld	a3,32(sp)
   11cc4:	04097793          	and	a5,s2,64
   11cc8:	0006ab83          	lw	s7,0(a3)
   11ccc:	58078263          	beqz	a5,12250 <_vfprintf_r+0x17c0>
   11cd0:	010b9b9b          	sllw	s7,s7,0x10
   11cd4:	410bdb9b          	sraw	s7,s7,0x10
   11cd8:	000b8793          	mv	a5,s7
   11cdc:	ea07d263          	bgez	a5,11380 <_vfprintf_r+0x8f0>
   11ce0:	02e13023          	sd	a4,32(sp)
   11ce4:	41700bb3          	neg	s7,s7
   11ce8:	00090c93          	mv	s9,s2
   11cec:	02d00713          	li	a4,45
   11cf0:	00100793          	li	a5,1
   11cf4:	dfcff06f          	j	112f0 <_vfprintf_r+0x860>
   11cf8:	01097793          	and	a5,s2,16
   11cfc:	0a079263          	bnez	a5,11da0 <_vfprintf_r+0x1310>
   11d00:	02013683          	ld	a3,32(sp)
   11d04:	04097793          	and	a5,s2,64
   11d08:	0006ab83          	lw	s7,0(a3)
   11d0c:	56078a63          	beqz	a5,12280 <_vfprintf_r+0x17f0>
   11d10:	030b9b93          	sll	s7,s7,0x30
   11d14:	030bdb93          	srl	s7,s7,0x30
   11d18:	eb8ff06f          	j	113d0 <_vfprintf_r+0x940>
   11d1c:	010cf793          	and	a5,s9,16
   11d20:	06079663          	bnez	a5,11d8c <_vfprintf_r+0x12fc>
   11d24:	02013683          	ld	a3,32(sp)
   11d28:	040cf793          	and	a5,s9,64
   11d2c:	0006ab83          	lw	s7,0(a3)
   11d30:	52078c63          	beqz	a5,12268 <_vfprintf_r+0x17d8>
   11d34:	030b9b93          	sll	s7,s7,0x30
   11d38:	030bdb93          	srl	s7,s7,0x30
   11d3c:	02e13023          	sd	a4,32(sp)
   11d40:	00100793          	li	a5,1
   11d44:	da8ff06f          	j	112ec <_vfprintf_r+0x85c>
   11d48:	00000d93          	li	s11,0
   11d4c:	17c10b13          	add	s6,sp,380
   11d50:	dccff06f          	j	1131c <_vfprintf_r+0x88c>
   11d54:	00197793          	and	a5,s2,1
   11d58:	000b8713          	mv	a4,s7
   11d5c:	00079463          	bnez	a5,11d64 <_vfprintf_r+0x12d4>
   11d60:	844ff06f          	j	10da4 <_vfprintf_r+0x314>
   11d64:	f90ff06f          	j	114f4 <_vfprintf_r+0xa64>
   11d68:	000a8313          	mv	t1,s5
   11d6c:	df8ff06f          	j	11364 <_vfprintf_r+0x8d4>
   11d70:	0004ce03          	lbu	t3,0(s1)
   11d74:	02f13023          	sd	a5,32(sp)
   11d78:	ec5fe06f          	j	10c3c <_vfprintf_r+0x1ac>
   11d7c:	03000793          	li	a5,48
   11d80:	16f10da3          	sb	a5,379(sp)
   11d84:	17b10b13          	add	s6,sp,379
   11d88:	d94ff06f          	j	1131c <_vfprintf_r+0x88c>
   11d8c:	02013783          	ld	a5,32(sp)
   11d90:	02e13023          	sd	a4,32(sp)
   11d94:	0007bb83          	ld	s7,0(a5)
   11d98:	00100793          	li	a5,1
   11d9c:	d50ff06f          	j	112ec <_vfprintf_r+0x85c>
   11da0:	02013783          	ld	a5,32(sp)
   11da4:	0007bb83          	ld	s7,0(a5)
   11da8:	e28ff06f          	j	113d0 <_vfprintf_r+0x940>
   11dac:	02013783          	ld	a5,32(sp)
   11db0:	0007b783          	ld	a5,0(a5)
   11db4:	00078b93          	mv	s7,a5
   11db8:	dc4ff06f          	j	1137c <_vfprintf_r+0x8ec>
   11dbc:	01097793          	and	a5,s2,16
   11dc0:	e4079263          	bnez	a5,11404 <_vfprintf_r+0x974>
   11dc4:	04097793          	and	a5,s2,64
   11dc8:	1c0798e3          	bnez	a5,12798 <_vfprintf_r+0x1d08>
   11dcc:	20097913          	and	s2,s2,512
   11dd0:	01013783          	ld	a5,16(sp)
   11dd4:	00091463          	bnez	s2,11ddc <_vfprintf_r+0x134c>
   11dd8:	1380106f          	j	12f10 <_vfprintf_r+0x2480>
   11ddc:	00f70023          	sb	a5,0(a4)
   11de0:	e2cff06f          	j	1140c <_vfprintf_r+0x97c>
   11de4:	02013783          	ld	a5,32(sp)
   11de8:	00f78a93          	add	s5,a5,15
   11dec:	ff0afa93          	and	s5,s5,-16
   11df0:	010a8793          	add	a5,s5,16
   11df4:	000ab703          	ld	a4,0(s5)
   11df8:	008ab583          	ld	a1,8(s5)
   11dfc:	02f13023          	sd	a5,32(sp)
   11e00:	910ff06f          	j	10f10 <_vfprintf_r+0x480>
   11e04:	00078693          	mv	a3,a5
   11e08:	00068d1b          	sext.w	s10,a3
   11e0c:	c5a04ae3          	bgtz	s10,11a60 <_vfprintf_r+0xfd0>
   11e10:	c79ff06f          	j	11a88 <_vfprintf_r+0xff8>
   11e14:	00013583          	ld	a1,0(sp)
   11e18:	10010613          	add	a2,sp,256
   11e1c:	00098513          	mv	a0,s3
   11e20:	08613823          	sd	t1,144(sp)
   11e24:	391090ef          	jal	1b9b4 <__sprint_r>
   11e28:	a00514e3          	bnez	a0,11830 <_vfprintf_r+0xda0>
   11e2c:	11013b83          	ld	s7,272(sp)
   11e30:	09013303          	ld	t1,144(sp)
   11e34:	18010413          	add	s0,sp,384
   11e38:	f35fe06f          	j	10d6c <_vfprintf_r+0x2dc>
   11e3c:	000237b7          	lui	a5,0x23
   11e40:	b6878793          	add	a5,a5,-1176 # 22b68 <__clz_tab+0x120>
   11e44:	000a8313          	mv	t1,s5
   11e48:	06f13423          	sd	a5,104(sp)
   11e4c:	02013683          	ld	a3,32(sp)
   11e50:	02097793          	and	a5,s2,32
   11e54:	00868713          	add	a4,a3,8
   11e58:	14078463          	beqz	a5,11fa0 <_vfprintf_r+0x1510>
   11e5c:	0006bb83          	ld	s7,0(a3)
   11e60:	00197793          	and	a5,s2,1
   11e64:	00078e63          	beqz	a5,11e80 <_vfprintf_r+0x13f0>
   11e68:	000b8c63          	beqz	s7,11e80 <_vfprintf_r+0x13f0>
   11e6c:	00296913          	or	s2,s2,2
   11e70:	03000793          	li	a5,48
   11e74:	0cf10823          	sb	a5,208(sp)
   11e78:	0da108a3          	sb	s10,209(sp)
   11e7c:	0009091b          	sext.w	s2,s2
   11e80:	bff97c93          	and	s9,s2,-1025
   11e84:	000c8c9b          	sext.w	s9,s9
   11e88:	02e13023          	sd	a4,32(sp)
   11e8c:	00200793          	li	a5,2
   11e90:	c5cff06f          	j	112ec <_vfprintf_r+0x85c>
   11e94:	000a8313          	mv	t1,s5
   11e98:	00090c93          	mv	s9,s2
   11e9c:	c34ff06f          	j	112d0 <_vfprintf_r+0x840>
   11ea0:	000237b7          	lui	a5,0x23
   11ea4:	b8078793          	add	a5,a5,-1152 # 22b80 <__clz_tab+0x138>
   11ea8:	000a8313          	mv	t1,s5
   11eac:	06f13423          	sd	a5,104(sp)
   11eb0:	f9dff06f          	j	11e4c <_vfprintf_r+0x13bc>
   11eb4:	00013583          	ld	a1,0(sp)
   11eb8:	10010613          	add	a2,sp,256
   11ebc:	00098513          	mv	a0,s3
   11ec0:	2f5090ef          	jal	1b9b4 <__sprint_r>
   11ec4:	960516e3          	bnez	a0,11830 <_vfprintf_r+0xda0>
   11ec8:	11013703          	ld	a4,272(sp)
   11ecc:	18010413          	add	s0,sp,384
   11ed0:	e58ff06f          	j	11528 <_vfprintf_r+0xa98>
   11ed4:	20096913          	or	s2,s2,512
   11ed8:	0014ce03          	lbu	t3,1(s1)
   11edc:	0009091b          	sext.w	s2,s2
   11ee0:	00148493          	add	s1,s1,1
   11ee4:	d59fe06f          	j	10c3c <_vfprintf_r+0x1ac>
   11ee8:	000a8313          	mv	t1,s5
   11eec:	cd0ff06f          	j	113bc <_vfprintf_r+0x92c>
   11ef0:	02096913          	or	s2,s2,32
   11ef4:	0014ce03          	lbu	t3,1(s1)
   11ef8:	0009091b          	sext.w	s2,s2
   11efc:	00148493          	add	s1,s1,1
   11f00:	d3dfe06f          	j	10c3c <_vfprintf_r+0x1ac>
   11f04:	00600793          	li	a5,6
   11f08:	00030693          	mv	a3,t1
   11f0c:	0467ece3          	bltu	a5,t1,12764 <_vfprintf_r+0x1cd4>
   11f10:	00068d9b          	sext.w	s11,a3
   11f14:	000237b7          	lui	a5,0x23
   11f18:	000d8c13          	mv	s8,s11
   11f1c:	03513023          	sd	s5,32(sp)
   11f20:	b9878b13          	add	s6,a5,-1128 # 22b98 <__clz_tab+0x150>
   11f24:	d99fe06f          	j	10cbc <_vfprintf_r+0x22c>
   11f28:	00023f37          	lui	t5,0x23
   11f2c:	01000593          	li	a1,16
   11f30:	000b8713          	mv	a4,s7
   11f34:	10812603          	lw	a2,264(sp)
   11f38:	ef8f0b93          	add	s7,t5,-264 # 22ef8 <zeroes.0>
   11f3c:	39a5d263          	bge	a1,s10,122c0 <_vfprintf_r+0x1830>
   11f40:	00013c83          	ld	s9,0(sp)
   11f44:	01000893          	li	a7,16
   11f48:	00700d93          	li	s11,7
   11f4c:	00c0006f          	j	11f58 <_vfprintf_r+0x14c8>
   11f50:	ff0d0d1b          	addw	s10,s10,-16
   11f54:	37a8d663          	bge	a7,s10,122c0 <_vfprintf_r+0x1830>
   11f58:	0016061b          	addw	a2,a2,1
   11f5c:	01070713          	add	a4,a4,16
   11f60:	01743023          	sd	s7,0(s0)
   11f64:	01143423          	sd	a7,8(s0)
   11f68:	10e13823          	sd	a4,272(sp)
   11f6c:	10c12423          	sw	a2,264(sp)
   11f70:	01040413          	add	s0,s0,16
   11f74:	fccddee3          	bge	s11,a2,11f50 <_vfprintf_r+0x14c0>
   11f78:	10010613          	add	a2,sp,256
   11f7c:	000c8593          	mv	a1,s9
   11f80:	00098513          	mv	a0,s3
   11f84:	231090ef          	jal	1b9b4 <__sprint_r>
   11f88:	8a0514e3          	bnez	a0,11830 <_vfprintf_r+0xda0>
   11f8c:	11013703          	ld	a4,272(sp)
   11f90:	10812603          	lw	a2,264(sp)
   11f94:	18010413          	add	s0,sp,384
   11f98:	01000893          	li	a7,16
   11f9c:	fb5ff06f          	j	11f50 <_vfprintf_r+0x14c0>
   11fa0:	01097793          	and	a5,s2,16
   11fa4:	14078663          	beqz	a5,120f0 <_vfprintf_r+0x1660>
   11fa8:	02013783          	ld	a5,32(sp)
   11fac:	0007bb83          	ld	s7,0(a5)
   11fb0:	eb1ff06f          	j	11e60 <_vfprintf_r+0x13d0>
   11fb4:	00013583          	ld	a1,0(sp)
   11fb8:	10010613          	add	a2,sp,256
   11fbc:	00098513          	mv	a0,s3
   11fc0:	1f5090ef          	jal	1b9b4 <__sprint_r>
   11fc4:	860516e3          	bnez	a0,11830 <_vfprintf_r+0xda0>
   11fc8:	11013703          	ld	a4,272(sp)
   11fcc:	10812683          	lw	a3,264(sp)
   11fd0:	18010c93          	add	s9,sp,384
   11fd4:	860ff06f          	j	11034 <_vfprintf_r+0x5a4>
   11fd8:	00013583          	ld	a1,0(sp)
   11fdc:	10010613          	add	a2,sp,256
   11fe0:	00098513          	mv	a0,s3
   11fe4:	1d1090ef          	jal	1b9b4 <__sprint_r>
   11fe8:	840514e3          	bnez	a0,11830 <_vfprintf_r+0xda0>
   11fec:	11013d03          	ld	s10,272(sp)
   11ff0:	10812403          	lw	s0,264(sp)
   11ff4:	18010c93          	add	s9,sp,384
   11ff8:	868ff06f          	j	11060 <_vfprintf_r+0x5d0>
   11ffc:	17c10a93          	add	s5,sp,380
   12000:	08013803          	ld	a6,128(sp)
   12004:	400cf793          	and	a5,s9,1024
   12008:	00000693          	li	a3,0
   1200c:	000a8593          	mv	a1,s5
   12010:	00a00913          	li	s2,10
   12014:	00900d93          	li	s11,9
   12018:	0ff00c13          	li	s8,255
   1201c:	0140006f          	j	12030 <_vfprintf_r+0x15a0>
   12020:	032bd733          	divu	a4,s7,s2
   12024:	037dfa63          	bgeu	s11,s7,12058 <_vfprintf_r+0x15c8>
   12028:	00070b93          	mv	s7,a4
   1202c:	000b0593          	mv	a1,s6
   12030:	fff58b13          	add	s6,a1,-1
   12034:	0016869b          	addw	a3,a3,1
   12038:	032bf733          	remu	a4,s7,s2
   1203c:	0307071b          	addw	a4,a4,48
   12040:	fee58fa3          	sb	a4,-1(a1)
   12044:	fc078ee3          	beqz	a5,12020 <_vfprintf_r+0x1590>
   12048:	00084703          	lbu	a4,0(a6)
   1204c:	fce69ae3          	bne	a3,a4,12020 <_vfprintf_r+0x1590>
   12050:	fd8708e3          	beq	a4,s8,12020 <_vfprintf_r+0x1590>
   12054:	497dee63          	bltu	s11,s7,124f0 <_vfprintf_r+0x1a60>
   12058:	02d13c23          	sd	a3,56(sp)
   1205c:	09013023          	sd	a6,128(sp)
   12060:	416a8dbb          	subw	s11,s5,s6
   12064:	000c8913          	mv	s2,s9
   12068:	ab4ff06f          	j	1131c <_vfprintf_r+0x88c>
   1206c:	10812683          	lw	a3,264(sp)
   12070:	000235b7          	lui	a1,0x23
   12074:	ba058593          	add	a1,a1,-1120 # 22ba0 <__clz_tab+0x158>
   12078:	0016869b          	addw	a3,a3,1
   1207c:	00b43023          	sd	a1,0(s0)
   12080:	001b8713          	add	a4,s7,1
   12084:	00100593          	li	a1,1
   12088:	00b43423          	sd	a1,8(s0)
   1208c:	10d12423          	sw	a3,264(sp)
   12090:	0006859b          	sext.w	a1,a3
   12094:	10e13823          	sd	a4,272(sp)
   12098:	00700693          	li	a3,7
   1209c:	01040413          	add	s0,s0,16
   120a0:	48b6ce63          	blt	a3,a1,1253c <_vfprintf_r+0x1aac>
   120a4:	10061a63          	bnez	a2,121b8 <_vfprintf_r+0x1728>
   120a8:	03813783          	ld	a5,56(sp)
   120ac:	00197693          	and	a3,s2,1
   120b0:	00d7e6b3          	or	a3,a5,a3
   120b4:	00069463          	bnez	a3,120bc <_vfprintf_r+0x162c>
   120b8:	cedfe06f          	j	10da4 <_vfprintf_r+0x314>
   120bc:	10812603          	lw	a2,264(sp)
   120c0:	05813783          	ld	a5,88(sp)
   120c4:	06013683          	ld	a3,96(sp)
   120c8:	00e78733          	add	a4,a5,a4
   120cc:	00d43023          	sd	a3,0(s0)
   120d0:	0016069b          	addw	a3,a2,1
   120d4:	00f43423          	sd	a5,8(s0)
   120d8:	10e13823          	sd	a4,272(sp)
   120dc:	10d12423          	sw	a3,264(sp)
   120e0:	00700613          	li	a2,7
   120e4:	70d64663          	blt	a2,a3,127f0 <_vfprintf_r+0x1d60>
   120e8:	01040413          	add	s0,s0,16
   120ec:	1000006f          	j	121ec <_vfprintf_r+0x175c>
   120f0:	02013683          	ld	a3,32(sp)
   120f4:	04097793          	and	a5,s2,64
   120f8:	0006ab83          	lw	s7,0(a3)
   120fc:	18078a63          	beqz	a5,12290 <_vfprintf_r+0x1800>
   12100:	030b9b93          	sll	s7,s7,0x30
   12104:	030bdb93          	srl	s7,s7,0x30
   12108:	d59ff06f          	j	11e60 <_vfprintf_r+0x13d0>
   1210c:	00013583          	ld	a1,0(sp)
   12110:	10010613          	add	a2,sp,256
   12114:	00098513          	mv	a0,s3
   12118:	09d090ef          	jal	1b9b4 <__sprint_r>
   1211c:	f0051a63          	bnez	a0,11830 <_vfprintf_r+0xda0>
   12120:	11013b83          	ld	s7,272(sp)
   12124:	18010413          	add	s0,sp,384
   12128:	bc0ff06f          	j	114e8 <_vfprintf_r+0xa58>
   1212c:	0017869b          	addw	a3,a5,1
   12130:	01743023          	sd	s7,0(s0)
   12134:	01943423          	sd	s9,8(s0)
   12138:	01970733          	add	a4,a4,s9
   1213c:	10e13823          	sd	a4,272(sp)
   12140:	10d12423          	sw	a3,264(sp)
   12144:	00700793          	li	a5,7
   12148:	00d7c463          	blt	a5,a3,12150 <_vfprintf_r+0x16c0>
   1214c:	c55fe06f          	j	10da0 <_vfprintf_r+0x310>
   12150:	f89fe06f          	j	110d8 <_vfprintf_r+0x648>
   12154:	02e13023          	sd	a4,32(sp)
   12158:	fecff06f          	j	11944 <_vfprintf_r+0xeb4>
   1215c:	0f013503          	ld	a0,240(sp)
   12160:	0f813583          	ld	a1,248(sp)
   12164:	00000613          	li	a2,0
   12168:	00000693          	li	a3,0
   1216c:	4810e0ef          	jal	20dec <__letf2>
   12170:	260544e3          	bltz	a0,12bd8 <_vfprintf_r+0x2148>
   12174:	0cf14703          	lbu	a4,207(sp)
   12178:	04700793          	li	a5,71
   1217c:	3fa7d263          	bge	a5,s10,12560 <_vfprintf_r+0x1ad0>
   12180:	000237b7          	lui	a5,0x23
   12184:	b5078b13          	add	s6,a5,-1200 # 22b50 <__clz_tab+0x108>
   12188:	f7f97913          	and	s2,s2,-129
   1218c:	00013c23          	sd	zero,24(sp)
   12190:	04013423          	sd	zero,72(sp)
   12194:	04013023          	sd	zero,64(sp)
   12198:	02013823          	sd	zero,48(sp)
   1219c:	0009091b          	sext.w	s2,s2
   121a0:	00300c13          	li	s8,3
   121a4:	00300d93          	li	s11,3
   121a8:	00000313          	li	t1,0
   121ac:	00070463          	beqz	a4,121b4 <_vfprintf_r+0x1724>
   121b0:	ff9fe06f          	j	111a8 <_vfprintf_r+0x718>
   121b4:	b1dfe06f          	j	10cd0 <_vfprintf_r+0x240>
   121b8:	10812583          	lw	a1,264(sp)
   121bc:	05813783          	ld	a5,88(sp)
   121c0:	06013683          	ld	a3,96(sp)
   121c4:	01040413          	add	s0,s0,16
   121c8:	00e78733          	add	a4,a5,a4
   121cc:	fed43823          	sd	a3,-16(s0)
   121d0:	0015869b          	addw	a3,a1,1
   121d4:	fef43c23          	sd	a5,-8(s0)
   121d8:	10e13823          	sd	a4,272(sp)
   121dc:	10d12423          	sw	a3,264(sp)
   121e0:	00700593          	li	a1,7
   121e4:	60d5c663          	blt	a1,a3,127f0 <_vfprintf_r+0x1d60>
   121e8:	360648e3          	bltz	a2,12d58 <_vfprintf_r+0x22c8>
   121ec:	03813783          	ld	a5,56(sp)
   121f0:	0016861b          	addw	a2,a3,1
   121f4:	01643023          	sd	s6,0(s0)
   121f8:	00e78733          	add	a4,a5,a4
   121fc:	00f43423          	sd	a5,8(s0)
   12200:	10e13823          	sd	a4,272(sp)
   12204:	10c12423          	sw	a2,264(sp)
   12208:	00700793          	li	a5,7
   1220c:	00c7c463          	blt	a5,a2,12214 <_vfprintf_r+0x1784>
   12210:	b91fe06f          	j	10da0 <_vfprintf_r+0x310>
   12214:	ec5fe06f          	j	110d8 <_vfprintf_r+0x648>
   12218:	0014041b          	addw	s0,s0,1
   1221c:	01bd0d33          	add	s10,s10,s11
   12220:	017cb023          	sd	s7,0(s9)
   12224:	01bcb423          	sd	s11,8(s9)
   12228:	11a13823          	sd	s10,272(sp)
   1222c:	10812423          	sw	s0,264(sp)
   12230:	00700793          	li	a5,7
   12234:	0087c463          	blt	a5,s0,1223c <_vfprintf_r+0x17ac>
   12238:	e6dfe06f          	j	110a4 <_vfprintf_r+0x614>
   1223c:	9bdff06f          	j	11bf8 <_vfprintf_r+0x1168>
   12240:	000b0513          	mv	a0,s6
   12244:	761060ef          	jal	191a4 <strlen>
   12248:	00050d9b          	sext.w	s11,a0
   1224c:	f31fe06f          	j	1117c <_vfprintf_r+0x6ec>
   12250:	20097793          	and	a5,s2,512
   12254:	56078263          	beqz	a5,127b8 <_vfprintf_r+0x1d28>
   12258:	018b9b9b          	sllw	s7,s7,0x18
   1225c:	418bdb9b          	sraw	s7,s7,0x18
   12260:	000b8793          	mv	a5,s7
   12264:	918ff06f          	j	1137c <_vfprintf_r+0x8ec>
   12268:	200cf793          	and	a5,s9,512
   1226c:	52078c63          	beqz	a5,127a4 <_vfprintf_r+0x1d14>
   12270:	0ffbfb93          	zext.b	s7,s7
   12274:	02e13023          	sd	a4,32(sp)
   12278:	00100793          	li	a5,1
   1227c:	870ff06f          	j	112ec <_vfprintf_r+0x85c>
   12280:	20097793          	and	a5,s2,512
   12284:	52078e63          	beqz	a5,127c0 <_vfprintf_r+0x1d30>
   12288:	0ffbfb93          	zext.b	s7,s7
   1228c:	944ff06f          	j	113d0 <_vfprintf_r+0x940>
   12290:	20097793          	and	a5,s2,512
   12294:	4e078c63          	beqz	a5,1278c <_vfprintf_r+0x1cfc>
   12298:	0ffbfb93          	zext.b	s7,s7
   1229c:	bc5ff06f          	j	11e60 <_vfprintf_r+0x13d0>
   122a0:	0f813783          	ld	a5,248(sp)
   122a4:	5207ce63          	bltz	a5,127e0 <_vfprintf_r+0x1d50>
   122a8:	0cf14703          	lbu	a4,207(sp)
   122ac:	04700793          	li	a5,71
   122b0:	21a7d4e3          	bge	a5,s10,12cb8 <_vfprintf_r+0x2228>
   122b4:	000237b7          	lui	a5,0x23
   122b8:	b6078b13          	add	s6,a5,-1184 # 22b60 <__clz_tab+0x118>
   122bc:	ecdff06f          	j	12188 <_vfprintf_r+0x16f8>
   122c0:	0016059b          	addw	a1,a2,1
   122c4:	00ed0733          	add	a4,s10,a4
   122c8:	01743023          	sd	s7,0(s0)
   122cc:	01a43423          	sd	s10,8(s0)
   122d0:	10e13823          	sd	a4,272(sp)
   122d4:	10b12423          	sw	a1,264(sp)
   122d8:	00700693          	li	a3,7
   122dc:	74b6ca63          	blt	a3,a1,12a30 <_vfprintf_r+0x1fa0>
   122e0:	01040413          	add	s0,s0,16
   122e4:	00070b93          	mv	s7,a4
   122e8:	fb8ff06f          	j	11aa0 <_vfprintf_r+0x1010>
   122ec:	08913823          	sd	s1,144(sp)
   122f0:	04013483          	ld	s1,64(sp)
   122f4:	00023e37          	lui	t3,0x23
   122f8:	0b413023          	sd	s4,160(sp)
   122fc:	05813023          	sd	s8,64(sp)
   12300:	09213c23          	sd	s2,152(sp)
   12304:	000b8713          	mv	a4,s7
   12308:	08013a03          	ld	s4,128(sp)
   1230c:	04813c03          	ld	s8,72(sp)
   12310:	00013c83          	ld	s9,0(sp)
   12314:	08813b83          	ld	s7,136(sp)
   12318:	00700313          	li	t1,7
   1231c:	01000d13          	li	s10,16
   12320:	ef8e0d93          	add	s11,t3,-264 # 22ef8 <zeroes.0>
   12324:	08048e63          	beqz	s1,123c0 <_vfprintf_r+0x1930>
   12328:	160c0663          	beqz	s8,12494 <_vfprintf_r+0x1a04>
   1232c:	fffc0c1b          	addw	s8,s8,-1
   12330:	10812783          	lw	a5,264(sp)
   12334:	07813683          	ld	a3,120(sp)
   12338:	01770733          	add	a4,a4,s7
   1233c:	01743423          	sd	s7,8(s0)
   12340:	00d43023          	sd	a3,0(s0)
   12344:	0017869b          	addw	a3,a5,1
   12348:	10e13823          	sd	a4,272(sp)
   1234c:	10d12423          	sw	a3,264(sp)
   12350:	01040413          	add	s0,s0,16
   12354:	14d34663          	blt	t1,a3,124a0 <_vfprintf_r+0x1a10>
   12358:	000a4603          	lbu	a2,0(s4)
   1235c:	416a87b3          	sub	a5,s5,s6
   12360:	0007859b          	sext.w	a1,a5
   12364:	0006069b          	sext.w	a3,a2
   12368:	00b65463          	bge	a2,a1,12370 <_vfprintf_r+0x18e0>
   1236c:	00068793          	mv	a5,a3
   12370:	0007891b          	sext.w	s2,a5
   12374:	03205863          	blez	s2,123a4 <_vfprintf_r+0x1914>
   12378:	10812683          	lw	a3,264(sp)
   1237c:	01270733          	add	a4,a4,s2
   12380:	01643023          	sd	s6,0(s0)
   12384:	0016861b          	addw	a2,a3,1
   12388:	01243423          	sd	s2,8(s0)
   1238c:	10e13823          	sd	a4,272(sp)
   12390:	10c12423          	sw	a2,264(sp)
   12394:	12c34863          	blt	t1,a2,124c4 <_vfprintf_r+0x1a34>
   12398:	000a4603          	lbu	a2,0(s4)
   1239c:	01040413          	add	s0,s0,16
   123a0:	0006069b          	sext.w	a3,a2
   123a4:	fff94593          	not	a1,s2
   123a8:	43f5d593          	sra	a1,a1,0x3f
   123ac:	00b977b3          	and	a5,s2,a1
   123b0:	40f6893b          	subw	s2,a3,a5
   123b4:	03204a63          	bgtz	s2,123e8 <_vfprintf_r+0x1958>
   123b8:	00cb0b33          	add	s6,s6,a2
   123bc:	f60496e3          	bnez	s1,12328 <_vfprintf_r+0x1898>
   123c0:	f60c16e3          	bnez	s8,1232c <_vfprintf_r+0x189c>
   123c4:	09413023          	sd	s4,128(sp)
   123c8:	09013483          	ld	s1,144(sp)
   123cc:	09813903          	ld	s2,152(sp)
   123d0:	0a013a03          	ld	s4,160(sp)
   123d4:	04013c03          	ld	s8,64(sp)
   123d8:	00070b93          	mv	s7,a4
   123dc:	ed6afa63          	bgeu	s5,s6,11ab0 <_vfprintf_r+0x1020>
   123e0:	000a8b13          	mv	s6,s5
   123e4:	eccff06f          	j	11ab0 <_vfprintf_r+0x1020>
   123e8:	000235b7          	lui	a1,0x23
   123ec:	10812783          	lw	a5,264(sp)
   123f0:	ef858593          	add	a1,a1,-264 # 22ef8 <zeroes.0>
   123f4:	072d5a63          	bge	s10,s2,12468 <_vfprintf_r+0x19d8>
   123f8:	02913823          	sd	s1,48(sp)
   123fc:	00090493          	mv	s1,s2
   12400:	000d8913          	mv	s2,s11
   12404:	00c0006f          	j	12410 <_vfprintf_r+0x1980>
   12408:	ff04849b          	addw	s1,s1,-16
   1240c:	049d5863          	bge	s10,s1,1245c <_vfprintf_r+0x19cc>
   12410:	0017879b          	addw	a5,a5,1
   12414:	01070713          	add	a4,a4,16
   12418:	01b43023          	sd	s11,0(s0)
   1241c:	01a43423          	sd	s10,8(s0)
   12420:	10e13823          	sd	a4,272(sp)
   12424:	10f12423          	sw	a5,264(sp)
   12428:	01040413          	add	s0,s0,16
   1242c:	fcf35ee3          	bge	t1,a5,12408 <_vfprintf_r+0x1978>
   12430:	10010613          	add	a2,sp,256
   12434:	000c8593          	mv	a1,s9
   12438:	00098513          	mv	a0,s3
   1243c:	578090ef          	jal	1b9b4 <__sprint_r>
   12440:	be051863          	bnez	a0,11830 <_vfprintf_r+0xda0>
   12444:	ff04849b          	addw	s1,s1,-16
   12448:	11013703          	ld	a4,272(sp)
   1244c:	10812783          	lw	a5,264(sp)
   12450:	18010413          	add	s0,sp,384
   12454:	00700313          	li	t1,7
   12458:	fa9d4ce3          	blt	s10,s1,12410 <_vfprintf_r+0x1980>
   1245c:	00090593          	mv	a1,s2
   12460:	00048913          	mv	s2,s1
   12464:	03013483          	ld	s1,48(sp)
   12468:	0017869b          	addw	a3,a5,1
   1246c:	00e90733          	add	a4,s2,a4
   12470:	00b43023          	sd	a1,0(s0)
   12474:	01243423          	sd	s2,8(s0)
   12478:	10e13823          	sd	a4,272(sp)
   1247c:	10d12423          	sw	a3,264(sp)
   12480:	72d34063          	blt	t1,a3,12ba0 <_vfprintf_r+0x2110>
   12484:	000a4603          	lbu	a2,0(s4)
   12488:	01040413          	add	s0,s0,16
   1248c:	00cb0b33          	add	s6,s6,a2
   12490:	f2dff06f          	j	123bc <_vfprintf_r+0x192c>
   12494:	fffa0a13          	add	s4,s4,-1
   12498:	fff4849b          	addw	s1,s1,-1
   1249c:	e95ff06f          	j	12330 <_vfprintf_r+0x18a0>
   124a0:	10010613          	add	a2,sp,256
   124a4:	000c8593          	mv	a1,s9
   124a8:	00098513          	mv	a0,s3
   124ac:	508090ef          	jal	1b9b4 <__sprint_r>
   124b0:	b8051063          	bnez	a0,11830 <_vfprintf_r+0xda0>
   124b4:	11013703          	ld	a4,272(sp)
   124b8:	18010413          	add	s0,sp,384
   124bc:	00700313          	li	t1,7
   124c0:	e99ff06f          	j	12358 <_vfprintf_r+0x18c8>
   124c4:	10010613          	add	a2,sp,256
   124c8:	000c8593          	mv	a1,s9
   124cc:	00098513          	mv	a0,s3
   124d0:	4e4090ef          	jal	1b9b4 <__sprint_r>
   124d4:	b4051e63          	bnez	a0,11830 <_vfprintf_r+0xda0>
   124d8:	000a4603          	lbu	a2,0(s4)
   124dc:	11013703          	ld	a4,272(sp)
   124e0:	18010413          	add	s0,sp,384
   124e4:	0006069b          	sext.w	a3,a2
   124e8:	00700313          	li	t1,7
   124ec:	eb9ff06f          	j	123a4 <_vfprintf_r+0x1914>
   124f0:	02f13c23          	sd	a5,56(sp)
   124f4:	08813783          	ld	a5,136(sp)
   124f8:	07813583          	ld	a1,120(sp)
   124fc:	02613823          	sd	t1,48(sp)
   12500:	40fb0b33          	sub	s6,s6,a5
   12504:	00078613          	mv	a2,a5
   12508:	000b0513          	mv	a0,s6
   1250c:	01013c23          	sd	a6,24(sp)
   12510:	55d060ef          	jal	1926c <strncpy>
   12514:	01813803          	ld	a6,24(sp)
   12518:	00a00713          	li	a4,10
   1251c:	02ebd733          	divu	a4,s7,a4
   12520:	00184683          	lbu	a3,1(a6)
   12524:	03013303          	ld	t1,48(sp)
   12528:	03813783          	ld	a5,56(sp)
   1252c:	00d036b3          	snez	a3,a3
   12530:	00d80833          	add	a6,a6,a3
   12534:	00000693          	li	a3,0
   12538:	af1ff06f          	j	12028 <_vfprintf_r+0x1598>
   1253c:	00013583          	ld	a1,0(sp)
   12540:	10010613          	add	a2,sp,256
   12544:	00098513          	mv	a0,s3
   12548:	46c090ef          	jal	1b9b4 <__sprint_r>
   1254c:	ae051263          	bnez	a0,11830 <_vfprintf_r+0xda0>
   12550:	0d812603          	lw	a2,216(sp)
   12554:	11013703          	ld	a4,272(sp)
   12558:	18010413          	add	s0,sp,384
   1255c:	b49ff06f          	j	120a4 <_vfprintf_r+0x1614>
   12560:	000237b7          	lui	a5,0x23
   12564:	b4878b13          	add	s6,a5,-1208 # 22b48 <__clz_tab+0x100>
   12568:	c21ff06f          	j	12188 <_vfprintf_r+0x16f8>
   1256c:	00030913          	mv	s2,t1
   12570:	00200693          	li	a3,2
   12574:	00090713          	mv	a4,s2
   12578:	0e810893          	add	a7,sp,232
   1257c:	0dc10813          	add	a6,sp,220
   12580:	0d810793          	add	a5,sp,216
   12584:	000c0593          	mv	a1,s8
   12588:	000c8613          	mv	a2,s9
   1258c:	00098513          	mv	a0,s3
   12590:	02613823          	sd	t1,48(sp)
   12594:	440030ef          	jal	159d4 <_ldtoa_r>
   12598:	06700713          	li	a4,103
   1259c:	03013303          	ld	t1,48(sp)
   125a0:	00050b13          	mv	s6,a0
   125a4:	5ced0463          	beq	s10,a4,12b6c <_vfprintf_r+0x20dc>
   125a8:	04700713          	li	a4,71
   125ac:	5ced0063          	beq	s10,a4,12b6c <_vfprintf_r+0x20dc>
   125b0:	fdfd7d93          	and	s11,s10,-33
   125b4:	04600713          	li	a4,70
   125b8:	01250ab3          	add	s5,a0,s2
   125bc:	64ed8a63          	beq	s11,a4,12c10 <_vfprintf_r+0x2180>
   125c0:	000c0513          	mv	a0,s8
   125c4:	00000613          	li	a2,0
   125c8:	00000693          	li	a3,0
   125cc:	000c8593          	mv	a1,s9
   125d0:	02613823          	sd	t1,48(sp)
   125d4:	6380e0ef          	jal	20c0c <__eqtf2>
   125d8:	03013303          	ld	t1,48(sp)
   125dc:	000a8c13          	mv	s8,s5
   125e0:	02050263          	beqz	a0,12604 <_vfprintf_r+0x1b74>
   125e4:	0e813c03          	ld	s8,232(sp)
   125e8:	015c7e63          	bgeu	s8,s5,12604 <_vfprintf_r+0x1b74>
   125ec:	03000693          	li	a3,48
   125f0:	001c0793          	add	a5,s8,1
   125f4:	0ef13423          	sd	a5,232(sp)
   125f8:	00dc0023          	sb	a3,0(s8)
   125fc:	0e813c03          	ld	s8,232(sp)
   12600:	ff5c68e3          	bltu	s8,s5,125f0 <_vfprintf_r+0x1b60>
   12604:	416c07bb          	subw	a5,s8,s6
   12608:	02f13c23          	sd	a5,56(sp)
   1260c:	0d812603          	lw	a2,216(sp)
   12610:	04700713          	li	a4,71
   12614:	02c13823          	sd	a2,48(sp)
   12618:	4ced8263          	beq	s11,a4,12adc <_vfprintf_r+0x204c>
   1261c:	04600713          	li	a4,70
   12620:	6aed8263          	beq	s11,a4,12cc4 <_vfprintf_r+0x2234>
   12624:	fff6071b          	addw	a4,a2,-1
   12628:	0ce12c23          	sw	a4,216(sp)
   1262c:	06100693          	li	a3,97
   12630:	1add08e3          	beq	s10,a3,12fe0 <_vfprintf_r+0x2550>
   12634:	04100593          	li	a1,65
   12638:	05000693          	li	a3,80
   1263c:	4abd1e63          	bne	s10,a1,12af8 <_vfprintf_r+0x2068>
   12640:	00100593          	li	a1,1
   12644:	0ed10023          	sb	a3,224(sp)
   12648:	02b00693          	li	a3,43
   1264c:	00075863          	bgez	a4,1265c <_vfprintf_r+0x1bcc>
   12650:	00100713          	li	a4,1
   12654:	40c7073b          	subw	a4,a4,a2
   12658:	02d00693          	li	a3,45
   1265c:	0ed100a3          	sb	a3,225(sp)
   12660:	00900693          	li	a3,9
   12664:	02e6dae3          	bge	a3,a4,12e98 <_vfprintf_r+0x2408>
   12668:	0ef10813          	add	a6,sp,239
   1266c:	00080893          	mv	a7,a6
   12670:	00a00313          	li	t1,10
   12674:	06300f13          	li	t5,99
   12678:	026767bb          	remw	a5,a4,t1
   1267c:	00088613          	mv	a2,a7
   12680:	00070693          	mv	a3,a4
   12684:	fff88893          	add	a7,a7,-1
   12688:	0307879b          	addw	a5,a5,48
   1268c:	fef60fa3          	sb	a5,-1(a2)
   12690:	0267473b          	divw	a4,a4,t1
   12694:	fedf42e3          	blt	t5,a3,12678 <_vfprintf_r+0x1be8>
   12698:	0307051b          	addw	a0,a4,48
   1269c:	fea88fa3          	sb	a0,-1(a7)
   126a0:	ffe60713          	add	a4,a2,-2
   126a4:	150772e3          	bgeu	a4,a6,12fe8 <_vfprintf_r+0x2558>
   126a8:	0e210693          	add	a3,sp,226
   126ac:	00074783          	lbu	a5,0(a4)
   126b0:	00170713          	add	a4,a4,1
   126b4:	00168693          	add	a3,a3,1
   126b8:	fef68fa3          	sb	a5,-1(a3)
   126bc:	ff0718e3          	bne	a4,a6,126ac <_vfprintf_r+0x1c1c>
   126c0:	0f110713          	add	a4,sp,241
   126c4:	0e210793          	add	a5,sp,226
   126c8:	40c70733          	sub	a4,a4,a2
   126cc:	00e78733          	add	a4,a5,a4
   126d0:	0e010693          	add	a3,sp,224
   126d4:	40d707bb          	subw	a5,a4,a3
   126d8:	06f13823          	sd	a5,112(sp)
   126dc:	07013703          	ld	a4,112(sp)
   126e0:	03813783          	ld	a5,56(sp)
   126e4:	00100613          	li	a2,1
   126e8:	00e78dbb          	addw	s11,a5,a4
   126ec:	000d8713          	mv	a4,s11
   126f0:	7cf65c63          	bge	a2,a5,12ec8 <_vfprintf_r+0x2438>
   126f4:	05813783          	ld	a5,88(sp)
   126f8:	00f70dbb          	addw	s11,a4,a5
   126fc:	04013783          	ld	a5,64(sp)
   12700:	fffdc813          	not	a6,s11
   12704:	43f85813          	sra	a6,a6,0x3f
   12708:	bff7f913          	and	s2,a5,-1025
   1270c:	0009091b          	sext.w	s2,s2
   12710:	010df833          	and	a6,s11,a6
   12714:	10096913          	or	s2,s2,256
   12718:	00080c1b          	sext.w	s8,a6
   1271c:	04013423          	sd	zero,72(sp)
   12720:	04013023          	sd	zero,64(sp)
   12724:	02013823          	sd	zero,48(sp)
   12728:	09813783          	ld	a5,152(sp)
   1272c:	3c078c63          	beqz	a5,12b04 <_vfprintf_r+0x2074>
   12730:	02d00713          	li	a4,45
   12734:	0ce107a3          	sb	a4,207(sp)
   12738:	00000313          	li	t1,0
   1273c:	001c0c1b          	addw	s8,s8,1
   12740:	d90fe06f          	j	10cd0 <_vfprintf_r+0x240>
   12744:	00013583          	ld	a1,0(sp)
   12748:	10010613          	add	a2,sp,256
   1274c:	00098513          	mv	a0,s3
   12750:	264090ef          	jal	1b9b4 <__sprint_r>
   12754:	8c051e63          	bnez	a0,11830 <_vfprintf_r+0xda0>
   12758:	11013b83          	ld	s7,272(sp)
   1275c:	18010413          	add	s0,sp,384
   12760:	b28ff06f          	j	11a88 <_vfprintf_r+0xff8>
   12764:	00600693          	li	a3,6
   12768:	fa8ff06f          	j	11f10 <_vfprintf_r+0x1480>
   1276c:	416a8cb3          	sub	s9,s5,s6
   12770:	40d7863b          	subw	a2,a5,a3
   12774:	000c879b          	sext.w	a5,s9
   12778:	000b8713          	mv	a4,s7
   1277c:	00f65463          	bge	a2,a5,12784 <_vfprintf_r+0x1cf4>
   12780:	00060c93          	mv	s9,a2
   12784:	000c8c9b          	sext.w	s9,s9
   12788:	bbcff06f          	j	11b44 <_vfprintf_r+0x10b4>
   1278c:	020b9b93          	sll	s7,s7,0x20
   12790:	020bdb93          	srl	s7,s7,0x20
   12794:	eccff06f          	j	11e60 <_vfprintf_r+0x13d0>
   12798:	01013783          	ld	a5,16(sp)
   1279c:	00f71023          	sh	a5,0(a4)
   127a0:	c6dfe06f          	j	1140c <_vfprintf_r+0x97c>
   127a4:	020b9b93          	sll	s7,s7,0x20
   127a8:	020bdb93          	srl	s7,s7,0x20
   127ac:	02e13023          	sd	a4,32(sp)
   127b0:	00100793          	li	a5,1
   127b4:	b39fe06f          	j	112ec <_vfprintf_r+0x85c>
   127b8:	000b8793          	mv	a5,s7
   127bc:	bc1fe06f          	j	1137c <_vfprintf_r+0x8ec>
   127c0:	020b9b93          	sll	s7,s7,0x20
   127c4:	020bdb93          	srl	s7,s7,0x20
   127c8:	c09fe06f          	j	113d0 <_vfprintf_r+0x940>
   127cc:	00013583          	ld	a1,0(sp)
   127d0:	05013503          	ld	a0,80(sp)
   127d4:	10010613          	add	a2,sp,256
   127d8:	1dc090ef          	jal	1b9b4 <__sprint_r>
   127dc:	e28fe06f          	j	10e04 <_vfprintf_r+0x374>
   127e0:	02d00793          	li	a5,45
   127e4:	0cf107a3          	sb	a5,207(sp)
   127e8:	02d00713          	li	a4,45
   127ec:	ac1ff06f          	j	122ac <_vfprintf_r+0x181c>
   127f0:	00013583          	ld	a1,0(sp)
   127f4:	10010613          	add	a2,sp,256
   127f8:	00098513          	mv	a0,s3
   127fc:	1b8090ef          	jal	1b9b4 <__sprint_r>
   12800:	00050463          	beqz	a0,12808 <_vfprintf_r+0x1d78>
   12804:	82cff06f          	j	11830 <_vfprintf_r+0xda0>
   12808:	0d812603          	lw	a2,216(sp)
   1280c:	11013703          	ld	a4,272(sp)
   12810:	10812683          	lw	a3,264(sp)
   12814:	18010413          	add	s0,sp,384
   12818:	9d1ff06f          	j	121e8 <_vfprintf_r+0x1758>
   1281c:	05800713          	li	a4,88
   12820:	00296793          	or	a5,s2,2
   12824:	03000693          	li	a3,48
   12828:	0007879b          	sext.w	a5,a5
   1282c:	0ce108a3          	sb	a4,209(sp)
   12830:	0cd10823          	sb	a3,208(sp)
   12834:	06300713          	li	a4,99
   12838:	04f13023          	sd	a5,64(sp)
   1283c:	00013c23          	sd	zero,24(sp)
   12840:	11810b13          	add	s6,sp,280
   12844:	5c674663          	blt	a4,t1,12e10 <_vfprintf_r+0x2380>
   12848:	10296913          	or	s2,s2,258
   1284c:	0f813c83          	ld	s9,248(sp)
   12850:	0009079b          	sext.w	a5,s2
   12854:	08f13823          	sd	a5,144(sp)
   12858:	08013c23          	sd	zero,152(sp)
   1285c:	0f013c03          	ld	s8,240(sp)
   12860:	320cc463          	bltz	s9,12b88 <_vfprintf_r+0x20f8>
   12864:	06100713          	li	a4,97
   12868:	00ed0463          	beq	s10,a4,12870 <_vfprintf_r+0x1de0>
   1286c:	f34fe06f          	j	10fa0 <_vfprintf_r+0x510>
   12870:	000c8593          	mv	a1,s9
   12874:	000c0513          	mv	a0,s8
   12878:	02613823          	sd	t1,48(sp)
   1287c:	5fd0f0ef          	jal	22678 <__trunctfdf2>
   12880:	0d810593          	add	a1,sp,216
   12884:	400060ef          	jal	18c84 <frexp>
   12888:	4d90f0ef          	jal	22560 <__extenddftf2>
   1288c:	00023737          	lui	a4,0x23
   12890:	f2873683          	ld	a3,-216(a4) # 22f28 <blanks.1+0x20>
   12894:	00000613          	li	a2,0
   12898:	6600e0ef          	jal	20ef8 <__multf3>
   1289c:	00000613          	li	a2,0
   128a0:	00000693          	li	a3,0
   128a4:	00050d93          	mv	s11,a0
   128a8:	00058913          	mv	s2,a1
   128ac:	3600e0ef          	jal	20c0c <__eqtf2>
   128b0:	03013303          	ld	t1,48(sp)
   128b4:	00051663          	bnez	a0,128c0 <_vfprintf_r+0x1e30>
   128b8:	00100713          	li	a4,1
   128bc:	0ce12c23          	sw	a4,216(sp)
   128c0:	00023737          	lui	a4,0x23
   128c4:	b8070793          	add	a5,a4,-1152 # 22b80 <__clz_tab+0x138>
   128c8:	02f13c23          	sd	a5,56(sp)
   128cc:	000236b7          	lui	a3,0x23
   128d0:	f386b783          	ld	a5,-200(a3) # 22f38 <blanks.1+0x30>
   128d4:	02031713          	sll	a4,t1,0x20
   128d8:	02075713          	srl	a4,a4,0x20
   128dc:	00170713          	add	a4,a4,1
   128e0:	02f13823          	sd	a5,48(sp)
   128e4:	0003061b          	sext.w	a2,t1
   128e8:	00eb07b3          	add	a5,s6,a4
   128ec:	0b413023          	sd	s4,160(sp)
   128f0:	0a813823          	sd	s0,176(sp)
   128f4:	00098b93          	mv	s7,s3
   128f8:	03813403          	ld	s0,56(sp)
   128fc:	04913423          	sd	s1,72(sp)
   12900:	0ac13c23          	sd	a2,184(sp)
   12904:	0a613423          	sd	t1,168(sp)
   12908:	000b0a13          	mv	s4,s6
   1290c:	00078993          	mv	s3,a5
   12910:	000b0c93          	mv	s9,s6
   12914:	0140006f          	j	12928 <_vfprintf_r+0x1e98>
   12918:	00000613          	li	a2,0
   1291c:	00000693          	li	a3,0
   12920:	2ec0e0ef          	jal	20c0c <__eqtf2>
   12924:	5a050a63          	beqz	a0,12ed8 <_vfprintf_r+0x2448>
   12928:	03013683          	ld	a3,48(sp)
   1292c:	00000613          	li	a2,0
   12930:	000d8513          	mv	a0,s11
   12934:	00090593          	mv	a1,s2
   12938:	5c00e0ef          	jal	20ef8 <__multf3>
   1293c:	00058493          	mv	s1,a1
   12940:	00050913          	mv	s2,a0
   12944:	2c10f0ef          	jal	22404 <__fixtfsi>
   12948:	00050c1b          	sext.w	s8,a0
   1294c:	000c0513          	mv	a0,s8
   12950:	3890f0ef          	jal	224d8 <__floatsitf>
   12954:	00058693          	mv	a3,a1
   12958:	00050613          	mv	a2,a0
   1295c:	00048593          	mv	a1,s1
   12960:	00090513          	mv	a0,s2
   12964:	6190e0ef          	jal	2177c <__subtf3>
   12968:	01840733          	add	a4,s0,s8
   1296c:	00074683          	lbu	a3,0(a4)
   12970:	000a0493          	mv	s1,s4
   12974:	001a0a13          	add	s4,s4,1
   12978:	feda0fa3          	sb	a3,-1(s4)
   1297c:	00050a93          	mv	s5,a0
   12980:	00050d93          	mv	s11,a0
   12984:	00058913          	mv	s2,a1
   12988:	f94998e3          	bne	s3,s4,12918 <_vfprintf_r+0x1e88>
   1298c:	02913823          	sd	s1,48(sp)
   12990:	000a0a93          	mv	s5,s4
   12994:	0a813303          	ld	t1,168(sp)
   12998:	0b013403          	ld	s0,176(sp)
   1299c:	04813483          	ld	s1,72(sp)
   129a0:	0a013a03          	ld	s4,160(sp)
   129a4:	000b8993          	mv	s3,s7
   129a8:	000c8b13          	mv	s6,s9
   129ac:	00050b93          	mv	s7,a0
   129b0:	00058c93          	mv	s9,a1
   129b4:	fff00d93          	li	s11,-1
   129b8:	000236b7          	lui	a3,0x23
   129bc:	f486b903          	ld	s2,-184(a3) # 22f48 <blanks.1+0x40>
   129c0:	00000613          	li	a2,0
   129c4:	000b8513          	mv	a0,s7
   129c8:	00090693          	mv	a3,s2
   129cc:	000c8593          	mv	a1,s9
   129d0:	04613423          	sd	t1,72(sp)
   129d4:	30c0e0ef          	jal	20ce0 <__getf2>
   129d8:	04813303          	ld	t1,72(sp)
   129dc:	44a04c63          	bgtz	a0,12e34 <_vfprintf_r+0x23a4>
   129e0:	00000613          	li	a2,0
   129e4:	00090693          	mv	a3,s2
   129e8:	000b8513          	mv	a0,s7
   129ec:	000c8593          	mv	a1,s9
   129f0:	21c0e0ef          	jal	20c0c <__eqtf2>
   129f4:	04813303          	ld	t1,72(sp)
   129f8:	00051663          	bnez	a0,12a04 <_vfprintf_r+0x1f74>
   129fc:	001c7c13          	and	s8,s8,1
   12a00:	420c1a63          	bnez	s8,12e34 <_vfprintf_r+0x23a4>
   12a04:	001d8c1b          	addw	s8,s11,1
   12a08:	018a8c33          	add	s8,s5,s8
   12a0c:	03000693          	li	a3,48
   12a10:	460dc863          	bltz	s11,12e80 <_vfprintf_r+0x23f0>
   12a14:	001a8a93          	add	s5,s5,1
   12a18:	feda8fa3          	sb	a3,-1(s5)
   12a1c:	ff5c1ce3          	bne	s8,s5,12a14 <_vfprintf_r+0x1f84>
   12a20:	416c07bb          	subw	a5,s8,s6
   12a24:	02f13c23          	sd	a5,56(sp)
   12a28:	fdfd7d93          	and	s11,s10,-33
   12a2c:	be1ff06f          	j	1260c <_vfprintf_r+0x1b7c>
   12a30:	00013583          	ld	a1,0(sp)
   12a34:	10010613          	add	a2,sp,256
   12a38:	00098513          	mv	a0,s3
   12a3c:	779080ef          	jal	1b9b4 <__sprint_r>
   12a40:	00050463          	beqz	a0,12a48 <_vfprintf_r+0x1fb8>
   12a44:	dedfe06f          	j	11830 <_vfprintf_r+0xda0>
   12a48:	11013b83          	ld	s7,272(sp)
   12a4c:	18010413          	add	s0,sp,384
   12a50:	850ff06f          	j	11aa0 <_vfprintf_r+0x1010>
   12a54:	0013091b          	addw	s2,t1,1
   12a58:	00200693          	li	a3,2
   12a5c:	b19ff06f          	j	12574 <_vfprintf_r+0x1ae4>
   12a60:	00030913          	mv	s2,t1
   12a64:	00300693          	li	a3,3
   12a68:	b0dff06f          	j	12574 <_vfprintf_r+0x1ae4>
   12a6c:	000c8593          	mv	a1,s9
   12a70:	000c0513          	mv	a0,s8
   12a74:	02613823          	sd	t1,48(sp)
   12a78:	4010f0ef          	jal	22678 <__trunctfdf2>
   12a7c:	0d810593          	add	a1,sp,216
   12a80:	204060ef          	jal	18c84 <frexp>
   12a84:	2dd0f0ef          	jal	22560 <__extenddftf2>
   12a88:	00023737          	lui	a4,0x23
   12a8c:	f2873683          	ld	a3,-216(a4) # 22f28 <blanks.1+0x20>
   12a90:	00000613          	li	a2,0
   12a94:	4640e0ef          	jal	20ef8 <__multf3>
   12a98:	00000613          	li	a2,0
   12a9c:	00000693          	li	a3,0
   12aa0:	00050d93          	mv	s11,a0
   12aa4:	00058913          	mv	s2,a1
   12aa8:	1640e0ef          	jal	20c0c <__eqtf2>
   12aac:	03013303          	ld	t1,48(sp)
   12ab0:	00051663          	bnez	a0,12abc <_vfprintf_r+0x202c>
   12ab4:	00100713          	li	a4,1
   12ab8:	0ce12c23          	sw	a4,216(sp)
   12abc:	00023737          	lui	a4,0x23
   12ac0:	b6870793          	add	a5,a4,-1176 # 22b68 <__clz_tab+0x120>
   12ac4:	02f13c23          	sd	a5,56(sp)
   12ac8:	e05ff06f          	j	128cc <_vfprintf_r+0x1e3c>
   12acc:	0e813c03          	ld	s8,232(sp)
   12ad0:	0d812603          	lw	a2,216(sp)
   12ad4:	416c07bb          	subw	a5,s8,s6
   12ad8:	02f13c23          	sd	a5,56(sp)
   12adc:	ffd00713          	li	a4,-3
   12ae0:	02c13823          	sd	a2,48(sp)
   12ae4:	00e64463          	blt	a2,a4,12aec <_vfprintf_r+0x205c>
   12ae8:	02c35863          	bge	t1,a2,12b18 <_vfprintf_r+0x2088>
   12aec:	fff6071b          	addw	a4,a2,-1
   12af0:	ffed0d1b          	addw	s10,s10,-2
   12af4:	0ce12c23          	sw	a4,216(sp)
   12af8:	0ffd7693          	zext.b	a3,s10
   12afc:	00000593          	li	a1,0
   12b00:	b45ff06f          	j	12644 <_vfprintf_r+0x1bb4>
   12b04:	0cf14703          	lbu	a4,207(sp)
   12b08:	00000313          	li	t1,0
   12b0c:	00070463          	beqz	a4,12b14 <_vfprintf_r+0x2084>
   12b10:	e98fe06f          	j	111a8 <_vfprintf_r+0x718>
   12b14:	9bcfe06f          	j	10cd0 <_vfprintf_r+0x240>
   12b18:	03813783          	ld	a5,56(sp)
   12b1c:	20f64063          	blt	a2,a5,12d1c <_vfprintf_r+0x228c>
   12b20:	04013783          	ld	a5,64(sp)
   12b24:	00060d93          	mv	s11,a2
   12b28:	0017f713          	and	a4,a5,1
   12b2c:	00070663          	beqz	a4,12b38 <_vfprintf_r+0x20a8>
   12b30:	05813783          	ld	a5,88(sp)
   12b34:	00c78dbb          	addw	s11,a5,a2
   12b38:	04013783          	ld	a5,64(sp)
   12b3c:	4007f713          	and	a4,a5,1024
   12b40:	00070463          	beqz	a4,12b48 <_vfprintf_r+0x20b8>
   12b44:	3ec04a63          	bgtz	a2,12f38 <_vfprintf_r+0x24a8>
   12b48:	fffdc813          	not	a6,s11
   12b4c:	43f85813          	sra	a6,a6,0x3f
   12b50:	09013903          	ld	s2,144(sp)
   12b54:	010df833          	and	a6,s11,a6
   12b58:	00080c1b          	sext.w	s8,a6
   12b5c:	06700d13          	li	s10,103
   12b60:	04013423          	sd	zero,72(sp)
   12b64:	04013023          	sd	zero,64(sp)
   12b68:	bc1ff06f          	j	12728 <_vfprintf_r+0x1c98>
   12b6c:	04013783          	ld	a5,64(sp)
   12b70:	0017f713          	and	a4,a5,1
   12b74:	f4070ce3          	beqz	a4,12acc <_vfprintf_r+0x203c>
   12b78:	012b0ab3          	add	s5,s6,s2
   12b7c:	04700d93          	li	s11,71
   12b80:	a41ff06f          	j	125c0 <_vfprintf_r+0x1b30>
   12b84:	00013c23          	sd	zero,24(sp)
   12b88:	fff00713          	li	a4,-1
   12b8c:	03f71713          	sll	a4,a4,0x3f
   12b90:	02d00793          	li	a5,45
   12b94:	00ecccb3          	xor	s9,s9,a4
   12b98:	08f13c23          	sd	a5,152(sp)
   12b9c:	cc9ff06f          	j	12864 <_vfprintf_r+0x1dd4>
   12ba0:	10010613          	add	a2,sp,256
   12ba4:	000c8593          	mv	a1,s9
   12ba8:	00098513          	mv	a0,s3
   12bac:	609080ef          	jal	1b9b4 <__sprint_r>
   12bb0:	00050463          	beqz	a0,12bb8 <_vfprintf_r+0x2128>
   12bb4:	c7dfe06f          	j	11830 <_vfprintf_r+0xda0>
   12bb8:	000a4603          	lbu	a2,0(s4)
   12bbc:	11013703          	ld	a4,272(sp)
   12bc0:	18010413          	add	s0,sp,384
   12bc4:	00700313          	li	t1,7
   12bc8:	00cb0b33          	add	s6,s6,a2
   12bcc:	ff0ff06f          	j	123bc <_vfprintf_r+0x192c>
   12bd0:	07800713          	li	a4,120
   12bd4:	c4dff06f          	j	12820 <_vfprintf_r+0x1d90>
   12bd8:	02d00793          	li	a5,45
   12bdc:	0cf107a3          	sb	a5,207(sp)
   12be0:	02d00713          	li	a4,45
   12be4:	d94ff06f          	j	12178 <_vfprintf_r+0x16e8>
   12be8:	00013583          	ld	a1,0(sp)
   12bec:	10010613          	add	a2,sp,256
   12bf0:	00098513          	mv	a0,s3
   12bf4:	5c1080ef          	jal	1b9b4 <__sprint_r>
   12bf8:	00050463          	beqz	a0,12c00 <_vfprintf_r+0x2170>
   12bfc:	c35fe06f          	j	11830 <_vfprintf_r+0xda0>
   12c00:	0d812683          	lw	a3,216(sp)
   12c04:	11013703          	ld	a4,272(sp)
   12c08:	18010413          	add	s0,sp,384
   12c0c:	eedfe06f          	j	11af8 <_vfprintf_r+0x1068>
   12c10:	00054683          	lbu	a3,0(a0)
   12c14:	03000713          	li	a4,48
   12c18:	00e68863          	beq	a3,a4,12c28 <_vfprintf_r+0x2198>
   12c1c:	0d812683          	lw	a3,216(sp)
   12c20:	00da8ab3          	add	s5,s5,a3
   12c24:	99dff06f          	j	125c0 <_vfprintf_r+0x1b30>
   12c28:	00000613          	li	a2,0
   12c2c:	00000693          	li	a3,0
   12c30:	000c0513          	mv	a0,s8
   12c34:	000c8593          	mv	a1,s9
   12c38:	02613823          	sd	t1,48(sp)
   12c3c:	7d10d0ef          	jal	20c0c <__eqtf2>
   12c40:	03013303          	ld	t1,48(sp)
   12c44:	fc050ce3          	beqz	a0,12c1c <_vfprintf_r+0x218c>
   12c48:	00100713          	li	a4,1
   12c4c:	412706bb          	subw	a3,a4,s2
   12c50:	0cd12c23          	sw	a3,216(sp)
   12c54:	00da8ab3          	add	s5,s5,a3
   12c58:	969ff06f          	j	125c0 <_vfprintf_r+0x1b30>
   12c5c:	0cf14703          	lbu	a4,207(sp)
   12c60:	03513023          	sd	s5,32(sp)
   12c64:	04013423          	sd	zero,72(sp)
   12c68:	04013023          	sd	zero,64(sp)
   12c6c:	02013823          	sd	zero,48(sp)
   12c70:	00030c13          	mv	s8,t1
   12c74:	00030d93          	mv	s11,t1
   12c78:	00000313          	li	t1,0
   12c7c:	00070463          	beqz	a4,12c84 <_vfprintf_r+0x21f4>
   12c80:	d28fe06f          	j	111a8 <_vfprintf_r+0x718>
   12c84:	84cfe06f          	j	10cd0 <_vfprintf_r+0x240>
   12c88:	00013583          	ld	a1,0(sp)
   12c8c:	10010613          	add	a2,sp,256
   12c90:	00098513          	mv	a0,s3
   12c94:	521080ef          	jal	1b9b4 <__sprint_r>
   12c98:	00050463          	beqz	a0,12ca0 <_vfprintf_r+0x2210>
   12c9c:	b95fe06f          	j	11830 <_vfprintf_r+0xda0>
   12ca0:	0d812603          	lw	a2,216(sp)
   12ca4:	03813783          	ld	a5,56(sp)
   12ca8:	11013703          	ld	a4,272(sp)
   12cac:	18010413          	add	s0,sp,384
   12cb0:	40c7863b          	subw	a2,a5,a2
   12cb4:	e91fe06f          	j	11b44 <_vfprintf_r+0x10b4>
   12cb8:	000237b7          	lui	a5,0x23
   12cbc:	b5878b13          	add	s6,a5,-1192 # 22b58 <__clz_tab+0x110>
   12cc0:	cc8ff06f          	j	12188 <_vfprintf_r+0x16f8>
   12cc4:	04013783          	ld	a5,64(sp)
   12cc8:	0017f713          	and	a4,a5,1
   12ccc:	03013783          	ld	a5,48(sp)
   12cd0:	00e36733          	or	a4,t1,a4
   12cd4:	32f05063          	blez	a5,12ff4 <_vfprintf_r+0x2564>
   12cd8:	2e071a63          	bnez	a4,12fcc <_vfprintf_r+0x253c>
   12cdc:	03013d83          	ld	s11,48(sp)
   12ce0:	06600d13          	li	s10,102
   12ce4:	04013783          	ld	a5,64(sp)
   12ce8:	4007f713          	and	a4,a5,1024
   12cec:	24071863          	bnez	a4,12f3c <_vfprintf_r+0x24ac>
   12cf0:	fffdc813          	not	a6,s11
   12cf4:	43f85813          	sra	a6,a6,0x3f
   12cf8:	010df833          	and	a6,s11,a6
   12cfc:	09013903          	ld	s2,144(sp)
   12d00:	00080c1b          	sext.w	s8,a6
   12d04:	e5dff06f          	j	12b60 <_vfprintf_r+0x20d0>
   12d08:	00090c93          	mv	s9,s2
   12d0c:	c41fe06f          	j	1194c <_vfprintf_r+0xebc>
   12d10:	fff00793          	li	a5,-1
   12d14:	00f13823          	sd	a5,16(sp)
   12d18:	900fe06f          	j	10e18 <_vfprintf_r+0x388>
   12d1c:	05813783          	ld	a5,88(sp)
   12d20:	03813703          	ld	a4,56(sp)
   12d24:	06700d13          	li	s10,103
   12d28:	00e78dbb          	addw	s11,a5,a4
   12d2c:	03013783          	ld	a5,48(sp)
   12d30:	faf04ae3          	bgtz	a5,12ce4 <_vfprintf_r+0x2254>
   12d34:	40fd873b          	subw	a4,s11,a5
   12d38:	0017071b          	addw	a4,a4,1
   12d3c:	00070d9b          	sext.w	s11,a4
   12d40:	fffdc613          	not	a2,s11
   12d44:	43f65613          	sra	a2,a2,0x3f
   12d48:	00c77733          	and	a4,a4,a2
   12d4c:	09013903          	ld	s2,144(sp)
   12d50:	00070c1b          	sext.w	s8,a4
   12d54:	e0dff06f          	j	12b60 <_vfprintf_r+0x20d0>
   12d58:	00023f37          	lui	t5,0x23
   12d5c:	ff000593          	li	a1,-16
   12d60:	40c00cbb          	negw	s9,a2
   12d64:	ef8f0b93          	add	s7,t5,-264 # 22ef8 <zeroes.0>
   12d68:	01000d13          	li	s10,16
   12d6c:	00700d93          	li	s11,7
   12d70:	00b64863          	blt	a2,a1,12d80 <_vfprintf_r+0x22f0>
   12d74:	0540006f          	j	12dc8 <_vfprintf_r+0x2338>
   12d78:	ff0c8c9b          	addw	s9,s9,-16
   12d7c:	059d5663          	bge	s10,s9,12dc8 <_vfprintf_r+0x2338>
   12d80:	0016869b          	addw	a3,a3,1
   12d84:	01070713          	add	a4,a4,16
   12d88:	01743023          	sd	s7,0(s0)
   12d8c:	01a43423          	sd	s10,8(s0)
   12d90:	10e13823          	sd	a4,272(sp)
   12d94:	10d12423          	sw	a3,264(sp)
   12d98:	01040413          	add	s0,s0,16
   12d9c:	fcdddee3          	bge	s11,a3,12d78 <_vfprintf_r+0x22e8>
   12da0:	00013583          	ld	a1,0(sp)
   12da4:	10010613          	add	a2,sp,256
   12da8:	00098513          	mv	a0,s3
   12dac:	409080ef          	jal	1b9b4 <__sprint_r>
   12db0:	00050463          	beqz	a0,12db8 <_vfprintf_r+0x2328>
   12db4:	a7dfe06f          	j	11830 <_vfprintf_r+0xda0>
   12db8:	11013703          	ld	a4,272(sp)
   12dbc:	10812683          	lw	a3,264(sp)
   12dc0:	18010413          	add	s0,sp,384
   12dc4:	fb5ff06f          	j	12d78 <_vfprintf_r+0x22e8>
   12dc8:	0016869b          	addw	a3,a3,1
   12dcc:	01970733          	add	a4,a4,s9
   12dd0:	01743023          	sd	s7,0(s0)
   12dd4:	01943423          	sd	s9,8(s0)
   12dd8:	10e13823          	sd	a4,272(sp)
   12ddc:	10d12423          	sw	a3,264(sp)
   12de0:	00700613          	li	a2,7
   12de4:	b0d65263          	bge	a2,a3,120e8 <_vfprintf_r+0x1658>
   12de8:	00013583          	ld	a1,0(sp)
   12dec:	10010613          	add	a2,sp,256
   12df0:	00098513          	mv	a0,s3
   12df4:	3c1080ef          	jal	1b9b4 <__sprint_r>
   12df8:	00050463          	beqz	a0,12e00 <_vfprintf_r+0x2370>
   12dfc:	a35fe06f          	j	11830 <_vfprintf_r+0xda0>
   12e00:	11013703          	ld	a4,272(sp)
   12e04:	10812683          	lw	a3,264(sp)
   12e08:	18010413          	add	s0,sp,384
   12e0c:	be0ff06f          	j	121ec <_vfprintf_r+0x175c>
   12e10:	0013059b          	addw	a1,t1,1
   12e14:	00098513          	mv	a0,s3
   12e18:	00613c23          	sd	t1,24(sp)
   12e1c:	264040ef          	jal	17080 <_malloc_r>
   12e20:	01813303          	ld	t1,24(sp)
   12e24:	00050b13          	mv	s6,a0
   12e28:	24050463          	beqz	a0,13070 <_vfprintf_r+0x25e0>
   12e2c:	00a13c23          	sd	a0,24(sp)
   12e30:	a19ff06f          	j	12848 <_vfprintf_r+0x1db8>
   12e34:	03013783          	ld	a5,48(sp)
   12e38:	000a8693          	mv	a3,s5
   12e3c:	0ef13423          	sd	a5,232(sp)
   12e40:	03813783          	ld	a5,56(sp)
   12e44:	fffac603          	lbu	a2,-1(s5)
   12e48:	00f7c583          	lbu	a1,15(a5)
   12e4c:	02c59063          	bne	a1,a2,12e6c <_vfprintf_r+0x23dc>
   12e50:	03000513          	li	a0,48
   12e54:	fea68fa3          	sb	a0,-1(a3)
   12e58:	0e813683          	ld	a3,232(sp)
   12e5c:	fff68793          	add	a5,a3,-1
   12e60:	0ef13423          	sd	a5,232(sp)
   12e64:	fff6c603          	lbu	a2,-1(a3)
   12e68:	fec586e3          	beq	a1,a2,12e54 <_vfprintf_r+0x23c4>
   12e6c:	0016059b          	addw	a1,a2,1
   12e70:	03900513          	li	a0,57
   12e74:	0ff5f593          	zext.b	a1,a1
   12e78:	00a60863          	beq	a2,a0,12e88 <_vfprintf_r+0x23f8>
   12e7c:	feb68fa3          	sb	a1,-1(a3)
   12e80:	000a8c13          	mv	s8,s5
   12e84:	b9dff06f          	j	12a20 <_vfprintf_r+0x1f90>
   12e88:	03813783          	ld	a5,56(sp)
   12e8c:	00a7c583          	lbu	a1,10(a5)
   12e90:	feb68fa3          	sb	a1,-1(a3)
   12e94:	fedff06f          	j	12e80 <_vfprintf_r+0x23f0>
   12e98:	0e210693          	add	a3,sp,226
   12e9c:	00059863          	bnez	a1,12eac <_vfprintf_r+0x241c>
   12ea0:	03000693          	li	a3,48
   12ea4:	0ed10123          	sb	a3,226(sp)
   12ea8:	0e310693          	add	a3,sp,227
   12eac:	20010793          	add	a5,sp,512
   12eb0:	40f68633          	sub	a2,a3,a5
   12eb4:	0307071b          	addw	a4,a4,48
   12eb8:	1216079b          	addw	a5,a2,289
   12ebc:	00e68023          	sb	a4,0(a3)
   12ec0:	06f13823          	sd	a5,112(sp)
   12ec4:	819ff06f          	j	126dc <_vfprintf_r+0x1c4c>
   12ec8:	04013783          	ld	a5,64(sp)
   12ecc:	0017f613          	and	a2,a5,1
   12ed0:	820606e3          	beqz	a2,126fc <_vfprintf_r+0x1c6c>
   12ed4:	821ff06f          	j	126f4 <_vfprintf_r+0x1c64>
   12ed8:	0b813603          	ld	a2,184(sp)
   12edc:	000c8b13          	mv	s6,s9
   12ee0:	000b8993          	mv	s3,s7
   12ee4:	00cb063b          	addw	a2,s6,a2
   12ee8:	000a8b93          	mv	s7,s5
   12eec:	000a0a93          	mv	s5,s4
   12ef0:	02913823          	sd	s1,48(sp)
   12ef4:	0a813303          	ld	t1,168(sp)
   12ef8:	0b013403          	ld	s0,176(sp)
   12efc:	04813483          	ld	s1,72(sp)
   12f00:	0a013a03          	ld	s4,160(sp)
   12f04:	00090c93          	mv	s9,s2
   12f08:	41560dbb          	subw	s11,a2,s5
   12f0c:	aadff06f          	j	129b8 <_vfprintf_r+0x1f28>
   12f10:	00f72023          	sw	a5,0(a4)
   12f14:	cf8fe06f          	j	1140c <_vfprintf_r+0x97c>
   12f18:	02e13023          	sd	a4,32(sp)
   12f1c:	a31fe06f          	j	1194c <_vfprintf_r+0xebc>
   12f20:	00030463          	beqz	t1,12f28 <_vfprintf_r+0x2498>
   12f24:	854fe06f          	j	10f78 <_vfprintf_r+0x4e8>
   12f28:	00100313          	li	t1,1
   12f2c:	84cfe06f          	j	10f78 <_vfprintf_r+0x4e8>
   12f30:	00600313          	li	t1,6
   12f34:	844fe06f          	j	10f78 <_vfprintf_r+0x4e8>
   12f38:	06700d13          	li	s10,103
   12f3c:	08013683          	ld	a3,128(sp)
   12f40:	0ff00613          	li	a2,255
   12f44:	0006c703          	lbu	a4,0(a3)
   12f48:	10c70e63          	beq	a4,a2,13064 <_vfprintf_r+0x25d4>
   12f4c:	03013783          	ld	a5,48(sp)
   12f50:	00000813          	li	a6,0
   12f54:	00000513          	li	a0,0
   12f58:	0ff00593          	li	a1,255
   12f5c:	0007061b          	sext.w	a2,a4
   12f60:	00f75e63          	bge	a4,a5,12f7c <_vfprintf_r+0x24ec>
   12f64:	0016c703          	lbu	a4,1(a3)
   12f68:	40c787bb          	subw	a5,a5,a2
   12f6c:	04070a63          	beqz	a4,12fc0 <_vfprintf_r+0x2530>
   12f70:	0015051b          	addw	a0,a0,1
   12f74:	00168693          	add	a3,a3,1
   12f78:	feb712e3          	bne	a4,a1,12f5c <_vfprintf_r+0x24cc>
   12f7c:	02f13823          	sd	a5,48(sp)
   12f80:	08d13023          	sd	a3,128(sp)
   12f84:	04a13023          	sd	a0,64(sp)
   12f88:	05013423          	sd	a6,72(sp)
   12f8c:	04813783          	ld	a5,72(sp)
   12f90:	04013703          	ld	a4,64(sp)
   12f94:	09013903          	ld	s2,144(sp)
   12f98:	00e7873b          	addw	a4,a5,a4
   12f9c:	08813783          	ld	a5,136(sp)
   12fa0:	02f7073b          	mulw	a4,a4,a5
   12fa4:	01b7073b          	addw	a4,a4,s11
   12fa8:	00070d9b          	sext.w	s11,a4
   12fac:	fffdc613          	not	a2,s11
   12fb0:	43f65613          	sra	a2,a2,0x3f
   12fb4:	00c77733          	and	a4,a4,a2
   12fb8:	00070c1b          	sext.w	s8,a4
   12fbc:	f6cff06f          	j	12728 <_vfprintf_r+0x1c98>
   12fc0:	0006c703          	lbu	a4,0(a3)
   12fc4:	0018081b          	addw	a6,a6,1
   12fc8:	fb1ff06f          	j	12f78 <_vfprintf_r+0x24e8>
   12fcc:	05813703          	ld	a4,88(sp)
   12fd0:	06600d13          	li	s10,102
   12fd4:	00f706bb          	addw	a3,a4,a5
   12fd8:	00668dbb          	addw	s11,a3,t1
   12fdc:	d09ff06f          	j	12ce4 <_vfprintf_r+0x2254>
   12fe0:	07000693          	li	a3,112
   12fe4:	e5cff06f          	j	12640 <_vfprintf_r+0x1bb0>
   12fe8:	00200793          	li	a5,2
   12fec:	06f13823          	sd	a5,112(sp)
   12ff0:	eecff06f          	j	126dc <_vfprintf_r+0x1c4c>
   12ff4:	00071c63          	bnez	a4,1300c <_vfprintf_r+0x257c>
   12ff8:	09013903          	ld	s2,144(sp)
   12ffc:	00100c13          	li	s8,1
   13000:	06600d13          	li	s10,102
   13004:	00100d93          	li	s11,1
   13008:	b59ff06f          	j	12b60 <_vfprintf_r+0x20d0>
   1300c:	05813783          	ld	a5,88(sp)
   13010:	09013903          	ld	s2,144(sp)
   13014:	06600d13          	li	s10,102
   13018:	0017871b          	addw	a4,a5,1
   1301c:	0067073b          	addw	a4,a4,t1
   13020:	00070d9b          	sext.w	s11,a4
   13024:	fffdc613          	not	a2,s11
   13028:	43f65613          	sra	a2,a2,0x3f
   1302c:	00c77733          	and	a4,a4,a2
   13030:	00070c1b          	sext.w	s8,a4
   13034:	b2dff06f          	j	12b60 <_vfprintf_r+0x20d0>
   13038:	02013683          	ld	a3,32(sp)
   1303c:	0006a703          	lw	a4,0(a3)
   13040:	00868693          	add	a3,a3,8
   13044:	00070313          	mv	t1,a4
   13048:	00075463          	bgez	a4,13050 <_vfprintf_r+0x25c0>
   1304c:	fff00313          	li	t1,-1
   13050:	0014ce03          	lbu	t3,1(s1)
   13054:	00030a9b          	sext.w	s5,t1
   13058:	02d13023          	sd	a3,32(sp)
   1305c:	00078493          	mv	s1,a5
   13060:	bddfd06f          	j	10c3c <_vfprintf_r+0x1ac>
   13064:	04013423          	sd	zero,72(sp)
   13068:	04013023          	sd	zero,64(sp)
   1306c:	f21ff06f          	j	12f8c <_vfprintf_r+0x24fc>
   13070:	00013703          	ld	a4,0(sp)
   13074:	01075783          	lhu	a5,16(a4)
   13078:	0407e793          	or	a5,a5,64
   1307c:	00f71823          	sh	a5,16(a4)
   13080:	d85fd06f          	j	10e04 <_vfprintf_r+0x374>

0000000000013084 <vfprintf>:
   13084:	00050793          	mv	a5,a0
   13088:	7581b503          	ld	a0,1880(gp) # 25ad8 <_impure_ptr>
   1308c:	00060693          	mv	a3,a2
   13090:	00058613          	mv	a2,a1
   13094:	00078593          	mv	a1,a5
   13098:	9f9fd06f          	j	10a90 <_vfprintf_r>

000000000001309c <__sbprintf>:
   1309c:	01059783          	lh	a5,16(a1)
   130a0:	0125d703          	lhu	a4,18(a1)
   130a4:	0ac5a303          	lw	t1,172(a1)
   130a8:	ffd7f793          	and	a5,a5,-3
   130ac:	0107979b          	sllw	a5,a5,0x10
   130b0:	0305b883          	ld	a7,48(a1)
   130b4:	0405b803          	ld	a6,64(a1)
   130b8:	0107171b          	sllw	a4,a4,0x10
   130bc:	0107d79b          	srlw	a5,a5,0x10
   130c0:	b3010113          	add	sp,sp,-1232
   130c4:	00e7e7b3          	or	a5,a5,a4
   130c8:	4c813023          	sd	s0,1216(sp)
   130cc:	40000713          	li	a4,1024
   130d0:	00f12823          	sw	a5,16(sp)
   130d4:	00058413          	mv	s0,a1
   130d8:	0b010793          	add	a5,sp,176
   130dc:	00010593          	mv	a1,sp
   130e0:	4a913c23          	sd	s1,1208(sp)
   130e4:	4b213823          	sd	s2,1200(sp)
   130e8:	4c113423          	sd	ra,1224(sp)
   130ec:	00050913          	mv	s2,a0
   130f0:	0a612623          	sw	t1,172(sp)
   130f4:	03113823          	sd	a7,48(sp)
   130f8:	05013023          	sd	a6,64(sp)
   130fc:	00f13023          	sd	a5,0(sp)
   13100:	00f13c23          	sd	a5,24(sp)
   13104:	00e12623          	sw	a4,12(sp)
   13108:	02e12023          	sw	a4,32(sp)
   1310c:	02012423          	sw	zero,40(sp)
   13110:	981fd0ef          	jal	10a90 <_vfprintf_r>
   13114:	00050493          	mv	s1,a0
   13118:	02055c63          	bgez	a0,13150 <__sbprintf+0xb4>
   1311c:	01015783          	lhu	a5,16(sp)
   13120:	0407f793          	and	a5,a5,64
   13124:	00078863          	beqz	a5,13134 <__sbprintf+0x98>
   13128:	01045783          	lhu	a5,16(s0)
   1312c:	0407e793          	or	a5,a5,64
   13130:	00f41823          	sh	a5,16(s0)
   13134:	4c813083          	ld	ra,1224(sp)
   13138:	4c013403          	ld	s0,1216(sp)
   1313c:	4b013903          	ld	s2,1200(sp)
   13140:	00048513          	mv	a0,s1
   13144:	4b813483          	ld	s1,1208(sp)
   13148:	4d010113          	add	sp,sp,1232
   1314c:	00008067          	ret
   13150:	00010593          	mv	a1,sp
   13154:	00090513          	mv	a0,s2
   13158:	4c4000ef          	jal	1361c <_fflush_r>
   1315c:	fc0500e3          	beqz	a0,1311c <__sbprintf+0x80>
   13160:	fff00493          	li	s1,-1
   13164:	fb9ff06f          	j	1311c <__sbprintf+0x80>

0000000000013168 <__swsetup_r>:
   13168:	7581b783          	ld	a5,1880(gp) # 25ad8 <_impure_ptr>
   1316c:	fe010113          	add	sp,sp,-32
   13170:	00813823          	sd	s0,16(sp)
   13174:	00913423          	sd	s1,8(sp)
   13178:	00113c23          	sd	ra,24(sp)
   1317c:	00050493          	mv	s1,a0
   13180:	00058413          	mv	s0,a1
   13184:	00078663          	beqz	a5,13190 <__swsetup_r+0x28>
   13188:	0507a703          	lw	a4,80(a5)
   1318c:	08070063          	beqz	a4,1320c <__swsetup_r+0xa4>
   13190:	01041783          	lh	a5,16(s0)
   13194:	0087f713          	and	a4,a5,8
   13198:	08070463          	beqz	a4,13220 <__swsetup_r+0xb8>
   1319c:	01843703          	ld	a4,24(s0)
   131a0:	0a070063          	beqz	a4,13240 <__swsetup_r+0xd8>
   131a4:	0017f693          	and	a3,a5,1
   131a8:	02068863          	beqz	a3,131d8 <__swsetup_r+0x70>
   131ac:	02042683          	lw	a3,32(s0)
   131b0:	00042623          	sw	zero,12(s0)
   131b4:	00000513          	li	a0,0
   131b8:	40d006bb          	negw	a3,a3
   131bc:	02d42423          	sw	a3,40(s0)
   131c0:	02070a63          	beqz	a4,131f4 <__swsetup_r+0x8c>
   131c4:	01813083          	ld	ra,24(sp)
   131c8:	01013403          	ld	s0,16(sp)
   131cc:	00813483          	ld	s1,8(sp)
   131d0:	02010113          	add	sp,sp,32
   131d4:	00008067          	ret
   131d8:	0027f693          	and	a3,a5,2
   131dc:	00000613          	li	a2,0
   131e0:	00069463          	bnez	a3,131e8 <__swsetup_r+0x80>
   131e4:	02042603          	lw	a2,32(s0)
   131e8:	00c42623          	sw	a2,12(s0)
   131ec:	00000513          	li	a0,0
   131f0:	fc071ae3          	bnez	a4,131c4 <__swsetup_r+0x5c>
   131f4:	0807f713          	and	a4,a5,128
   131f8:	fc0706e3          	beqz	a4,131c4 <__swsetup_r+0x5c>
   131fc:	0407e793          	or	a5,a5,64
   13200:	00f41823          	sh	a5,16(s0)
   13204:	fff00513          	li	a0,-1
   13208:	fbdff06f          	j	131c4 <__swsetup_r+0x5c>
   1320c:	00078513          	mv	a0,a5
   13210:	029000ef          	jal	13a38 <__sinit>
   13214:	01041783          	lh	a5,16(s0)
   13218:	0087f713          	and	a4,a5,8
   1321c:	f80710e3          	bnez	a4,1319c <__swsetup_r+0x34>
   13220:	0107f713          	and	a4,a5,16
   13224:	06070a63          	beqz	a4,13298 <__swsetup_r+0x130>
   13228:	0047f713          	and	a4,a5,4
   1322c:	02071c63          	bnez	a4,13264 <__swsetup_r+0xfc>
   13230:	01843703          	ld	a4,24(s0)
   13234:	0087e793          	or	a5,a5,8
   13238:	00f41823          	sh	a5,16(s0)
   1323c:	f60714e3          	bnez	a4,131a4 <__swsetup_r+0x3c>
   13240:	2807f693          	and	a3,a5,640
   13244:	20000613          	li	a2,512
   13248:	f4c68ee3          	beq	a3,a2,131a4 <__swsetup_r+0x3c>
   1324c:	00040593          	mv	a1,s0
   13250:	00048513          	mv	a0,s1
   13254:	3c5030ef          	jal	16e18 <__smakebuf_r>
   13258:	01041783          	lh	a5,16(s0)
   1325c:	01843703          	ld	a4,24(s0)
   13260:	f45ff06f          	j	131a4 <__swsetup_r+0x3c>
   13264:	05843583          	ld	a1,88(s0)
   13268:	00058e63          	beqz	a1,13284 <__swsetup_r+0x11c>
   1326c:	07440713          	add	a4,s0,116
   13270:	00e58863          	beq	a1,a4,13280 <__swsetup_r+0x118>
   13274:	00048513          	mv	a0,s1
   13278:	199000ef          	jal	13c10 <_free_r>
   1327c:	01041783          	lh	a5,16(s0)
   13280:	04043c23          	sd	zero,88(s0)
   13284:	01843703          	ld	a4,24(s0)
   13288:	fdb7f793          	and	a5,a5,-37
   1328c:	00042423          	sw	zero,8(s0)
   13290:	00e43023          	sd	a4,0(s0)
   13294:	fa1ff06f          	j	13234 <__swsetup_r+0xcc>
   13298:	00900713          	li	a4,9
   1329c:	00e4a023          	sw	a4,0(s1)
   132a0:	0407e793          	or	a5,a5,64
   132a4:	f5dff06f          	j	13200 <__swsetup_r+0x98>

00000000000132a8 <__call_exitprocs>:
   132a8:	fb010113          	add	sp,sp,-80
   132ac:	03413023          	sd	s4,32(sp)
   132b0:	7481ba03          	ld	s4,1864(gp) # 25ac8 <_global_impure_ptr>
   132b4:	03213823          	sd	s2,48(sp)
   132b8:	04113423          	sd	ra,72(sp)
   132bc:	1f8a3903          	ld	s2,504(s4)
   132c0:	04813023          	sd	s0,64(sp)
   132c4:	02913c23          	sd	s1,56(sp)
   132c8:	03313423          	sd	s3,40(sp)
   132cc:	01513c23          	sd	s5,24(sp)
   132d0:	01613823          	sd	s6,16(sp)
   132d4:	01713423          	sd	s7,8(sp)
   132d8:	01813023          	sd	s8,0(sp)
   132dc:	04090063          	beqz	s2,1331c <__call_exitprocs+0x74>
   132e0:	00050b13          	mv	s6,a0
   132e4:	00058b93          	mv	s7,a1
   132e8:	00100a93          	li	s5,1
   132ec:	fff00993          	li	s3,-1
   132f0:	00892483          	lw	s1,8(s2)
   132f4:	fff4841b          	addw	s0,s1,-1
   132f8:	02044263          	bltz	s0,1331c <__call_exitprocs+0x74>
   132fc:	00349493          	sll	s1,s1,0x3
   13300:	009904b3          	add	s1,s2,s1
   13304:	040b8463          	beqz	s7,1334c <__call_exitprocs+0xa4>
   13308:	2084b783          	ld	a5,520(s1)
   1330c:	05778063          	beq	a5,s7,1334c <__call_exitprocs+0xa4>
   13310:	fff4041b          	addw	s0,s0,-1
   13314:	ff848493          	add	s1,s1,-8
   13318:	ff3416e3          	bne	s0,s3,13304 <__call_exitprocs+0x5c>
   1331c:	04813083          	ld	ra,72(sp)
   13320:	04013403          	ld	s0,64(sp)
   13324:	03813483          	ld	s1,56(sp)
   13328:	03013903          	ld	s2,48(sp)
   1332c:	02813983          	ld	s3,40(sp)
   13330:	02013a03          	ld	s4,32(sp)
   13334:	01813a83          	ld	s5,24(sp)
   13338:	01013b03          	ld	s6,16(sp)
   1333c:	00813b83          	ld	s7,8(sp)
   13340:	00013c03          	ld	s8,0(sp)
   13344:	05010113          	add	sp,sp,80
   13348:	00008067          	ret
   1334c:	00892783          	lw	a5,8(s2)
   13350:	0084b703          	ld	a4,8(s1)
   13354:	fff7879b          	addw	a5,a5,-1
   13358:	06878263          	beq	a5,s0,133bc <__call_exitprocs+0x114>
   1335c:	0004b423          	sd	zero,8(s1)
   13360:	fa0708e3          	beqz	a4,13310 <__call_exitprocs+0x68>
   13364:	31092783          	lw	a5,784(s2)
   13368:	008a96bb          	sllw	a3,s5,s0
   1336c:	00892c03          	lw	s8,8(s2)
   13370:	00d7f7b3          	and	a5,a5,a3
   13374:	0007879b          	sext.w	a5,a5
   13378:	02079263          	bnez	a5,1339c <__call_exitprocs+0xf4>
   1337c:	000700e7          	jalr	a4
   13380:	00892703          	lw	a4,8(s2)
   13384:	1f8a3783          	ld	a5,504(s4)
   13388:	01871463          	bne	a4,s8,13390 <__call_exitprocs+0xe8>
   1338c:	f92782e3          	beq	a5,s2,13310 <__call_exitprocs+0x68>
   13390:	f80786e3          	beqz	a5,1331c <__call_exitprocs+0x74>
   13394:	00078913          	mv	s2,a5
   13398:	f59ff06f          	j	132f0 <__call_exitprocs+0x48>
   1339c:	31492783          	lw	a5,788(s2)
   133a0:	1084b583          	ld	a1,264(s1)
   133a4:	00d7f7b3          	and	a5,a5,a3
   133a8:	0007879b          	sext.w	a5,a5
   133ac:	00079c63          	bnez	a5,133c4 <__call_exitprocs+0x11c>
   133b0:	000b0513          	mv	a0,s6
   133b4:	000700e7          	jalr	a4
   133b8:	fc9ff06f          	j	13380 <__call_exitprocs+0xd8>
   133bc:	00892423          	sw	s0,8(s2)
   133c0:	fa1ff06f          	j	13360 <__call_exitprocs+0xb8>
   133c4:	00058513          	mv	a0,a1
   133c8:	000700e7          	jalr	a4
   133cc:	fb5ff06f          	j	13380 <__call_exitprocs+0xd8>

00000000000133d0 <__sflush_r>:
   133d0:	01059783          	lh	a5,16(a1)
   133d4:	fd010113          	add	sp,sp,-48
   133d8:	02813023          	sd	s0,32(sp)
   133dc:	01313423          	sd	s3,8(sp)
   133e0:	02113423          	sd	ra,40(sp)
   133e4:	00913c23          	sd	s1,24(sp)
   133e8:	01213823          	sd	s2,16(sp)
   133ec:	0087f713          	and	a4,a5,8
   133f0:	00058413          	mv	s0,a1
   133f4:	00050993          	mv	s3,a0
   133f8:	12071263          	bnez	a4,1351c <__sflush_r+0x14c>
   133fc:	00001737          	lui	a4,0x1
   13400:	80070713          	add	a4,a4,-2048 # 800 <exit-0xf8e8>
   13404:	0085a683          	lw	a3,8(a1)
   13408:	00e7e733          	or	a4,a5,a4
   1340c:	00e59823          	sh	a4,16(a1)
   13410:	18d05863          	blez	a3,135a0 <__sflush_r+0x1d0>
   13414:	04843803          	ld	a6,72(s0)
   13418:	0e080263          	beqz	a6,134fc <__sflush_r+0x12c>
   1341c:	00c7d793          	srl	a5,a5,0xc
   13420:	0009a483          	lw	s1,0(s3)
   13424:	0017f793          	and	a5,a5,1
   13428:	0009a023          	sw	zero,0(s3)
   1342c:	03043583          	ld	a1,48(s0)
   13430:	18079063          	bnez	a5,135b0 <__sflush_r+0x1e0>
   13434:	00000613          	li	a2,0
   13438:	00100693          	li	a3,1
   1343c:	00098513          	mv	a0,s3
   13440:	000800e7          	jalr	a6
   13444:	fff00793          	li	a5,-1
   13448:	00050613          	mv	a2,a0
   1344c:	1af50063          	beq	a0,a5,135ec <__sflush_r+0x21c>
   13450:	01041703          	lh	a4,16(s0)
   13454:	04843803          	ld	a6,72(s0)
   13458:	03043583          	ld	a1,48(s0)
   1345c:	00477713          	and	a4,a4,4
   13460:	00070e63          	beqz	a4,1347c <__sflush_r+0xac>
   13464:	00842703          	lw	a4,8(s0)
   13468:	05843783          	ld	a5,88(s0)
   1346c:	40e60633          	sub	a2,a2,a4
   13470:	00078663          	beqz	a5,1347c <__sflush_r+0xac>
   13474:	07042783          	lw	a5,112(s0)
   13478:	40f60633          	sub	a2,a2,a5
   1347c:	00000693          	li	a3,0
   13480:	00098513          	mv	a0,s3
   13484:	000800e7          	jalr	a6
   13488:	fff00793          	li	a5,-1
   1348c:	12f51663          	bne	a0,a5,135b8 <__sflush_r+0x1e8>
   13490:	0009a683          	lw	a3,0(s3)
   13494:	01d00793          	li	a5,29
   13498:	0cd7ee63          	bltu	a5,a3,13574 <__sflush_r+0x1a4>
   1349c:	dfc00737          	lui	a4,0xdfc00
   134a0:	ffe70713          	add	a4,a4,-2 # ffffffffdfbffffe <__BSS_END__+0xffffffffdfbda47e>
   134a4:	40d75733          	sra	a4,a4,a3
   134a8:	00177713          	and	a4,a4,1
   134ac:	01041783          	lh	a5,16(s0)
   134b0:	0c071463          	bnez	a4,13578 <__sflush_r+0x1a8>
   134b4:	01843603          	ld	a2,24(s0)
   134b8:	fffff737          	lui	a4,0xfffff
   134bc:	7ff70713          	add	a4,a4,2047 # fffffffffffff7ff <__BSS_END__+0xfffffffffffd9c7f>
   134c0:	00e7f733          	and	a4,a5,a4
   134c4:	00c7d793          	srl	a5,a5,0xc
   134c8:	00e41823          	sh	a4,16(s0)
   134cc:	00042423          	sw	zero,8(s0)
   134d0:	00c43023          	sd	a2,0(s0)
   134d4:	0017f793          	and	a5,a5,1
   134d8:	12079c63          	bnez	a5,13610 <__sflush_r+0x240>
   134dc:	05843583          	ld	a1,88(s0)
   134e0:	0099a023          	sw	s1,0(s3)
   134e4:	00058c63          	beqz	a1,134fc <__sflush_r+0x12c>
   134e8:	07440793          	add	a5,s0,116
   134ec:	00f58663          	beq	a1,a5,134f8 <__sflush_r+0x128>
   134f0:	00098513          	mv	a0,s3
   134f4:	71c000ef          	jal	13c10 <_free_r>
   134f8:	04043c23          	sd	zero,88(s0)
   134fc:	00000513          	li	a0,0
   13500:	02813083          	ld	ra,40(sp)
   13504:	02013403          	ld	s0,32(sp)
   13508:	01813483          	ld	s1,24(sp)
   1350c:	01013903          	ld	s2,16(sp)
   13510:	00813983          	ld	s3,8(sp)
   13514:	03010113          	add	sp,sp,48
   13518:	00008067          	ret
   1351c:	0185b903          	ld	s2,24(a1)
   13520:	fc090ee3          	beqz	s2,134fc <__sflush_r+0x12c>
   13524:	0005b483          	ld	s1,0(a1)
   13528:	0037f793          	and	a5,a5,3
   1352c:	0125b023          	sd	s2,0(a1)
   13530:	412484bb          	subw	s1,s1,s2
   13534:	00000713          	li	a4,0
   13538:	00079463          	bnez	a5,13540 <__sflush_r+0x170>
   1353c:	0205a703          	lw	a4,32(a1)
   13540:	00e42623          	sw	a4,12(s0)
   13544:	00904863          	bgtz	s1,13554 <__sflush_r+0x184>
   13548:	fb5ff06f          	j	134fc <__sflush_r+0x12c>
   1354c:	00a90933          	add	s2,s2,a0
   13550:	fa9056e3          	blez	s1,134fc <__sflush_r+0x12c>
   13554:	04043783          	ld	a5,64(s0)
   13558:	03043583          	ld	a1,48(s0)
   1355c:	00048693          	mv	a3,s1
   13560:	00090613          	mv	a2,s2
   13564:	00098513          	mv	a0,s3
   13568:	000780e7          	jalr	a5
   1356c:	40a484bb          	subw	s1,s1,a0
   13570:	fca04ee3          	bgtz	a0,1354c <__sflush_r+0x17c>
   13574:	01041783          	lh	a5,16(s0)
   13578:	0407e793          	or	a5,a5,64
   1357c:	02813083          	ld	ra,40(sp)
   13580:	00f41823          	sh	a5,16(s0)
   13584:	02013403          	ld	s0,32(sp)
   13588:	01813483          	ld	s1,24(sp)
   1358c:	01013903          	ld	s2,16(sp)
   13590:	00813983          	ld	s3,8(sp)
   13594:	fff00513          	li	a0,-1
   13598:	03010113          	add	sp,sp,48
   1359c:	00008067          	ret
   135a0:	0705a683          	lw	a3,112(a1)
   135a4:	e6d048e3          	bgtz	a3,13414 <__sflush_r+0x44>
   135a8:	00000513          	li	a0,0
   135ac:	f55ff06f          	j	13500 <__sflush_r+0x130>
   135b0:	09043603          	ld	a2,144(s0)
   135b4:	ea9ff06f          	j	1345c <__sflush_r+0x8c>
   135b8:	01041783          	lh	a5,16(s0)
   135bc:	01843683          	ld	a3,24(s0)
   135c0:	fffff737          	lui	a4,0xfffff
   135c4:	7ff70713          	add	a4,a4,2047 # fffffffffffff7ff <__BSS_END__+0xfffffffffffd9c7f>
   135c8:	00e7f733          	and	a4,a5,a4
   135cc:	00c7d793          	srl	a5,a5,0xc
   135d0:	00e41823          	sh	a4,16(s0)
   135d4:	00042423          	sw	zero,8(s0)
   135d8:	00d43023          	sd	a3,0(s0)
   135dc:	0017f793          	and	a5,a5,1
   135e0:	ee078ee3          	beqz	a5,134dc <__sflush_r+0x10c>
   135e4:	08a43823          	sd	a0,144(s0)
   135e8:	ef5ff06f          	j	134dc <__sflush_r+0x10c>
   135ec:	0009a783          	lw	a5,0(s3)
   135f0:	e60780e3          	beqz	a5,13450 <__sflush_r+0x80>
   135f4:	01d00713          	li	a4,29
   135f8:	00e78663          	beq	a5,a4,13604 <__sflush_r+0x234>
   135fc:	01600713          	li	a4,22
   13600:	f6e79ae3          	bne	a5,a4,13574 <__sflush_r+0x1a4>
   13604:	0099a023          	sw	s1,0(s3)
   13608:	00000513          	li	a0,0
   1360c:	ef5ff06f          	j	13500 <__sflush_r+0x130>
   13610:	ec0696e3          	bnez	a3,134dc <__sflush_r+0x10c>
   13614:	08a43823          	sd	a0,144(s0)
   13618:	ec5ff06f          	j	134dc <__sflush_r+0x10c>

000000000001361c <_fflush_r>:
   1361c:	fe010113          	add	sp,sp,-32
   13620:	00813823          	sd	s0,16(sp)
   13624:	00113c23          	sd	ra,24(sp)
   13628:	00050413          	mv	s0,a0
   1362c:	00050663          	beqz	a0,13638 <_fflush_r+0x1c>
   13630:	05052783          	lw	a5,80(a0)
   13634:	02078063          	beqz	a5,13654 <_fflush_r+0x38>
   13638:	01059783          	lh	a5,16(a1)
   1363c:	02079663          	bnez	a5,13668 <_fflush_r+0x4c>
   13640:	01813083          	ld	ra,24(sp)
   13644:	01013403          	ld	s0,16(sp)
   13648:	00000513          	li	a0,0
   1364c:	02010113          	add	sp,sp,32
   13650:	00008067          	ret
   13654:	00b13423          	sd	a1,8(sp)
   13658:	3e0000ef          	jal	13a38 <__sinit>
   1365c:	00813583          	ld	a1,8(sp)
   13660:	01059783          	lh	a5,16(a1)
   13664:	fc078ee3          	beqz	a5,13640 <_fflush_r+0x24>
   13668:	00040513          	mv	a0,s0
   1366c:	01013403          	ld	s0,16(sp)
   13670:	01813083          	ld	ra,24(sp)
   13674:	02010113          	add	sp,sp,32
   13678:	d59ff06f          	j	133d0 <__sflush_r>

000000000001367c <fflush>:
   1367c:	06050663          	beqz	a0,136e8 <fflush+0x6c>
   13680:	fe010113          	add	sp,sp,-32
   13684:	00813823          	sd	s0,16(sp)
   13688:	00050413          	mv	s0,a0
   1368c:	7581b503          	ld	a0,1880(gp) # 25ad8 <_impure_ptr>
   13690:	00113c23          	sd	ra,24(sp)
   13694:	00050663          	beqz	a0,136a0 <fflush+0x24>
   13698:	05052783          	lw	a5,80(a0)
   1369c:	02078a63          	beqz	a5,136d0 <fflush+0x54>
   136a0:	01041783          	lh	a5,16(s0)
   136a4:	00079c63          	bnez	a5,136bc <fflush+0x40>
   136a8:	01813083          	ld	ra,24(sp)
   136ac:	01013403          	ld	s0,16(sp)
   136b0:	00000513          	li	a0,0
   136b4:	02010113          	add	sp,sp,32
   136b8:	00008067          	ret
   136bc:	00040593          	mv	a1,s0
   136c0:	01013403          	ld	s0,16(sp)
   136c4:	01813083          	ld	ra,24(sp)
   136c8:	02010113          	add	sp,sp,32
   136cc:	d05ff06f          	j	133d0 <__sflush_r>
   136d0:	00a13423          	sd	a0,8(sp)
   136d4:	364000ef          	jal	13a38 <__sinit>
   136d8:	01041783          	lh	a5,16(s0)
   136dc:	00813503          	ld	a0,8(sp)
   136e0:	fc0784e3          	beqz	a5,136a8 <fflush+0x2c>
   136e4:	fd9ff06f          	j	136bc <fflush+0x40>
   136e8:	7481b503          	ld	a0,1864(gp) # 25ac8 <_global_impure_ptr>
   136ec:	000135b7          	lui	a1,0x13
   136f0:	61c58593          	add	a1,a1,1564 # 1361c <_fflush_r>
   136f4:	0f90006f          	j	13fec <_fwalk_reent>

00000000000136f8 <__fp_lock>:
   136f8:	00000513          	li	a0,0
   136fc:	00008067          	ret

0000000000013700 <_cleanup_r>:
   13700:	0001d5b7          	lui	a1,0x1d
   13704:	f8858593          	add	a1,a1,-120 # 1cf88 <_fclose_r>
   13708:	0e50006f          	j	13fec <_fwalk_reent>

000000000001370c <__fp_unlock>:
   1370c:	00000513          	li	a0,0
   13710:	00008067          	ret

0000000000013714 <__sinit.part.0>:
   13714:	fc010113          	add	sp,sp,-64
   13718:	000137b7          	lui	a5,0x13
   1371c:	02113c23          	sd	ra,56(sp)
   13720:	02813823          	sd	s0,48(sp)
   13724:	02913423          	sd	s1,40(sp)
   13728:	03213023          	sd	s2,32(sp)
   1372c:	01313c23          	sd	s3,24(sp)
   13730:	01413823          	sd	s4,16(sp)
   13734:	01513423          	sd	s5,8(sp)
   13738:	01613023          	sd	s6,0(sp)
   1373c:	00853403          	ld	s0,8(a0)
   13740:	70078793          	add	a5,a5,1792 # 13700 <_cleanup_r>
   13744:	04f53c23          	sd	a5,88(a0)
   13748:	53850713          	add	a4,a0,1336
   1374c:	00300793          	li	a5,3
   13750:	52e53823          	sd	a4,1328(a0)
   13754:	52f52423          	sw	a5,1320(a0)
   13758:	52053023          	sd	zero,1312(a0)
   1375c:	00400793          	li	a5,4
   13760:	00050913          	mv	s2,a0
   13764:	00f42823          	sw	a5,16(s0)
   13768:	00800613          	li	a2,8
   1376c:	00000593          	li	a1,0
   13770:	00043023          	sd	zero,0(s0)
   13774:	00043423          	sd	zero,8(s0)
   13778:	0a042623          	sw	zero,172(s0)
   1377c:	00043c23          	sd	zero,24(s0)
   13780:	02042023          	sw	zero,32(s0)
   13784:	02042423          	sw	zero,40(s0)
   13788:	0a440513          	add	a0,s0,164
   1378c:	99cfd0ef          	jal	10928 <memset>
   13790:	00019b37          	lui	s6,0x19
   13794:	01093483          	ld	s1,16(s2)
   13798:	00019ab7          	lui	s5,0x19
   1379c:	00019a37          	lui	s4,0x19
   137a0:	000199b7          	lui	s3,0x19
   137a4:	e30b0b13          	add	s6,s6,-464 # 18e30 <__sread>
   137a8:	e94a8a93          	add	s5,s5,-364 # 18e94 <__swrite>
   137ac:	f1ca0a13          	add	s4,s4,-228 # 18f1c <__sseek>
   137b0:	f9498993          	add	s3,s3,-108 # 18f94 <__sclose>
   137b4:	000107b7          	lui	a5,0x10
   137b8:	03643c23          	sd	s6,56(s0)
   137bc:	05543023          	sd	s5,64(s0)
   137c0:	05443423          	sd	s4,72(s0)
   137c4:	05343823          	sd	s3,80(s0)
   137c8:	02843823          	sd	s0,48(s0)
   137cc:	00978793          	add	a5,a5,9 # 10009 <exit-0xdf>
   137d0:	00f4a823          	sw	a5,16(s1)
   137d4:	00800613          	li	a2,8
   137d8:	00000593          	li	a1,0
   137dc:	0004b023          	sd	zero,0(s1)
   137e0:	0004b423          	sd	zero,8(s1)
   137e4:	0a04a623          	sw	zero,172(s1)
   137e8:	0004bc23          	sd	zero,24(s1)
   137ec:	0204a023          	sw	zero,32(s1)
   137f0:	0204a423          	sw	zero,40(s1)
   137f4:	0a448513          	add	a0,s1,164
   137f8:	930fd0ef          	jal	10928 <memset>
   137fc:	01893403          	ld	s0,24(s2)
   13800:	000207b7          	lui	a5,0x20
   13804:	0364bc23          	sd	s6,56(s1)
   13808:	0554b023          	sd	s5,64(s1)
   1380c:	0544b423          	sd	s4,72(s1)
   13810:	0534b823          	sd	s3,80(s1)
   13814:	0294b823          	sd	s1,48(s1)
   13818:	01278793          	add	a5,a5,18 # 20012 <_read+0x32>
   1381c:	00f42823          	sw	a5,16(s0)
   13820:	00043023          	sd	zero,0(s0)
   13824:	00043423          	sd	zero,8(s0)
   13828:	0a042623          	sw	zero,172(s0)
   1382c:	00043c23          	sd	zero,24(s0)
   13830:	02042023          	sw	zero,32(s0)
   13834:	02042423          	sw	zero,40(s0)
   13838:	0a440513          	add	a0,s0,164
   1383c:	00800613          	li	a2,8
   13840:	00000593          	li	a1,0
   13844:	8e4fd0ef          	jal	10928 <memset>
   13848:	03813083          	ld	ra,56(sp)
   1384c:	03643c23          	sd	s6,56(s0)
   13850:	05543023          	sd	s5,64(s0)
   13854:	05443423          	sd	s4,72(s0)
   13858:	05343823          	sd	s3,80(s0)
   1385c:	02843823          	sd	s0,48(s0)
   13860:	03013403          	ld	s0,48(sp)
   13864:	00100793          	li	a5,1
   13868:	04f92823          	sw	a5,80(s2)
   1386c:	02813483          	ld	s1,40(sp)
   13870:	02013903          	ld	s2,32(sp)
   13874:	01813983          	ld	s3,24(sp)
   13878:	01013a03          	ld	s4,16(sp)
   1387c:	00813a83          	ld	s5,8(sp)
   13880:	00013b03          	ld	s6,0(sp)
   13884:	04010113          	add	sp,sp,64
   13888:	00008067          	ret

000000000001388c <__sfmoreglue>:
   1388c:	fe010113          	add	sp,sp,-32
   13890:	00913423          	sd	s1,8(sp)
   13894:	0b000793          	li	a5,176
   13898:	fff5849b          	addw	s1,a1,-1
   1389c:	02f484b3          	mul	s1,s1,a5
   138a0:	01213023          	sd	s2,0(sp)
   138a4:	00058913          	mv	s2,a1
   138a8:	00813823          	sd	s0,16(sp)
   138ac:	00113c23          	sd	ra,24(sp)
   138b0:	0c848593          	add	a1,s1,200
   138b4:	7cc030ef          	jal	17080 <_malloc_r>
   138b8:	00050413          	mv	s0,a0
   138bc:	02050063          	beqz	a0,138dc <__sfmoreglue+0x50>
   138c0:	01850513          	add	a0,a0,24
   138c4:	00043023          	sd	zero,0(s0)
   138c8:	01242423          	sw	s2,8(s0)
   138cc:	00a43823          	sd	a0,16(s0)
   138d0:	0b048613          	add	a2,s1,176
   138d4:	00000593          	li	a1,0
   138d8:	850fd0ef          	jal	10928 <memset>
   138dc:	01813083          	ld	ra,24(sp)
   138e0:	00040513          	mv	a0,s0
   138e4:	01013403          	ld	s0,16(sp)
   138e8:	00813483          	ld	s1,8(sp)
   138ec:	00013903          	ld	s2,0(sp)
   138f0:	02010113          	add	sp,sp,32
   138f4:	00008067          	ret

00000000000138f8 <__sfp>:
   138f8:	fd010113          	add	sp,sp,-48
   138fc:	00913c23          	sd	s1,24(sp)
   13900:	7481b483          	ld	s1,1864(gp) # 25ac8 <_global_impure_ptr>
   13904:	01213823          	sd	s2,16(sp)
   13908:	02113423          	sd	ra,40(sp)
   1390c:	0504a783          	lw	a5,80(s1)
   13910:	02813023          	sd	s0,32(sp)
   13914:	01313423          	sd	s3,8(sp)
   13918:	00050913          	mv	s2,a0
   1391c:	0a078863          	beqz	a5,139cc <__sfp+0xd4>
   13920:	52048493          	add	s1,s1,1312
   13924:	0b000993          	li	s3,176
   13928:	0084a703          	lw	a4,8(s1)
   1392c:	0104b403          	ld	s0,16(s1)
   13930:	08e05663          	blez	a4,139bc <__sfp+0xc4>
   13934:	02071713          	sll	a4,a4,0x20
   13938:	02075713          	srl	a4,a4,0x20
   1393c:	03370733          	mul	a4,a4,s3
   13940:	00e40733          	add	a4,s0,a4
   13944:	00c0006f          	j	13950 <__sfp+0x58>
   13948:	0b040413          	add	s0,s0,176
   1394c:	06e40863          	beq	s0,a4,139bc <__sfp+0xc4>
   13950:	01041783          	lh	a5,16(s0)
   13954:	fe079ae3          	bnez	a5,13948 <__sfp+0x50>
   13958:	ffff07b7          	lui	a5,0xffff0
   1395c:	00178793          	add	a5,a5,1 # ffffffffffff0001 <__BSS_END__+0xfffffffffffca481>
   13960:	00f42823          	sw	a5,16(s0)
   13964:	0a042623          	sw	zero,172(s0)
   13968:	00043023          	sd	zero,0(s0)
   1396c:	00043423          	sd	zero,8(s0)
   13970:	00043c23          	sd	zero,24(s0)
   13974:	02042023          	sw	zero,32(s0)
   13978:	02042423          	sw	zero,40(s0)
   1397c:	00800613          	li	a2,8
   13980:	00000593          	li	a1,0
   13984:	0a440513          	add	a0,s0,164
   13988:	fa1fc0ef          	jal	10928 <memset>
   1398c:	04043c23          	sd	zero,88(s0)
   13990:	06042023          	sw	zero,96(s0)
   13994:	06043c23          	sd	zero,120(s0)
   13998:	08042023          	sw	zero,128(s0)
   1399c:	02813083          	ld	ra,40(sp)
   139a0:	00040513          	mv	a0,s0
   139a4:	02013403          	ld	s0,32(sp)
   139a8:	01813483          	ld	s1,24(sp)
   139ac:	01013903          	ld	s2,16(sp)
   139b0:	00813983          	ld	s3,8(sp)
   139b4:	03010113          	add	sp,sp,48
   139b8:	00008067          	ret
   139bc:	0004b403          	ld	s0,0(s1)
   139c0:	00040c63          	beqz	s0,139d8 <__sfp+0xe0>
   139c4:	00040493          	mv	s1,s0
   139c8:	f61ff06f          	j	13928 <__sfp+0x30>
   139cc:	00048513          	mv	a0,s1
   139d0:	d45ff0ef          	jal	13714 <__sinit.part.0>
   139d4:	f4dff06f          	j	13920 <__sfp+0x28>
   139d8:	2d800593          	li	a1,728
   139dc:	00090513          	mv	a0,s2
   139e0:	6a0030ef          	jal	17080 <_malloc_r>
   139e4:	00050413          	mv	s0,a0
   139e8:	02050863          	beqz	a0,13a18 <__sfp+0x120>
   139ec:	01850513          	add	a0,a0,24
   139f0:	00400793          	li	a5,4
   139f4:	00043023          	sd	zero,0(s0)
   139f8:	00f42423          	sw	a5,8(s0)
   139fc:	00a43823          	sd	a0,16(s0)
   13a00:	2c000613          	li	a2,704
   13a04:	00000593          	li	a1,0
   13a08:	f21fc0ef          	jal	10928 <memset>
   13a0c:	0084b023          	sd	s0,0(s1)
   13a10:	00040493          	mv	s1,s0
   13a14:	f15ff06f          	j	13928 <__sfp+0x30>
   13a18:	0004b023          	sd	zero,0(s1)
   13a1c:	00c00793          	li	a5,12
   13a20:	00f92023          	sw	a5,0(s2)
   13a24:	f79ff06f          	j	1399c <__sfp+0xa4>

0000000000013a28 <_cleanup>:
   13a28:	7481b503          	ld	a0,1864(gp) # 25ac8 <_global_impure_ptr>
   13a2c:	0001d5b7          	lui	a1,0x1d
   13a30:	f8858593          	add	a1,a1,-120 # 1cf88 <_fclose_r>
   13a34:	5b80006f          	j	13fec <_fwalk_reent>

0000000000013a38 <__sinit>:
   13a38:	05052783          	lw	a5,80(a0)
   13a3c:	00078463          	beqz	a5,13a44 <__sinit+0xc>
   13a40:	00008067          	ret
   13a44:	cd1ff06f          	j	13714 <__sinit.part.0>

0000000000013a48 <__sfp_lock_acquire>:
   13a48:	00008067          	ret

0000000000013a4c <__sfp_lock_release>:
   13a4c:	00008067          	ret

0000000000013a50 <__sinit_lock_acquire>:
   13a50:	00008067          	ret

0000000000013a54 <__sinit_lock_release>:
   13a54:	00008067          	ret

0000000000013a58 <__fp_lock_all>:
   13a58:	7581b503          	ld	a0,1880(gp) # 25ad8 <_impure_ptr>
   13a5c:	000135b7          	lui	a1,0x13
   13a60:	6f858593          	add	a1,a1,1784 # 136f8 <__fp_lock>
   13a64:	4cc0006f          	j	13f30 <_fwalk>

0000000000013a68 <__fp_unlock_all>:
   13a68:	7581b503          	ld	a0,1880(gp) # 25ad8 <_impure_ptr>
   13a6c:	000135b7          	lui	a1,0x13
   13a70:	70c58593          	add	a1,a1,1804 # 1370c <__fp_unlock>
   13a74:	4bc0006f          	j	13f30 <_fwalk>

0000000000013a78 <__libc_fini_array>:
   13a78:	fe010113          	add	sp,sp,-32
   13a7c:	00813823          	sd	s0,16(sp)
   13a80:	000257b7          	lui	a5,0x25
   13a84:	00025437          	lui	s0,0x25
   13a88:	97878793          	add	a5,a5,-1672 # 24978 <__do_global_dtors_aux_fini_array_entry>
   13a8c:	98040413          	add	s0,s0,-1664 # 24980 <impure_data>
   13a90:	40f40433          	sub	s0,s0,a5
   13a94:	00913423          	sd	s1,8(sp)
   13a98:	00113c23          	sd	ra,24(sp)
   13a9c:	40345493          	sra	s1,s0,0x3
   13aa0:	02048063          	beqz	s1,13ac0 <__libc_fini_array+0x48>
   13aa4:	ff840413          	add	s0,s0,-8
   13aa8:	00f40433          	add	s0,s0,a5
   13aac:	00043783          	ld	a5,0(s0)
   13ab0:	fff48493          	add	s1,s1,-1
   13ab4:	ff840413          	add	s0,s0,-8
   13ab8:	000780e7          	jalr	a5
   13abc:	fe0498e3          	bnez	s1,13aac <__libc_fini_array+0x34>
   13ac0:	01813083          	ld	ra,24(sp)
   13ac4:	01013403          	ld	s0,16(sp)
   13ac8:	00813483          	ld	s1,8(sp)
   13acc:	02010113          	add	sp,sp,32
   13ad0:	00008067          	ret

0000000000013ad4 <_malloc_trim_r>:
   13ad4:	fd010113          	add	sp,sp,-48
   13ad8:	01313423          	sd	s3,8(sp)
   13adc:	000259b7          	lui	s3,0x25
   13ae0:	02813023          	sd	s0,32(sp)
   13ae4:	00913c23          	sd	s1,24(sp)
   13ae8:	01213823          	sd	s2,16(sp)
   13aec:	01413023          	sd	s4,0(sp)
   13af0:	02113423          	sd	ra,40(sp)
   13af4:	00058a13          	mv	s4,a1
   13af8:	00050913          	mv	s2,a0
   13afc:	27098993          	add	s3,s3,624 # 25270 <__malloc_av_>
   13b00:	691030ef          	jal	17990 <__malloc_lock>
   13b04:	0109b703          	ld	a4,16(s3)
   13b08:	000017b7          	lui	a5,0x1
   13b0c:	fdf78413          	add	s0,a5,-33 # fdf <exit-0xf109>
   13b10:	00873483          	ld	s1,8(a4)
   13b14:	ffc4f493          	and	s1,s1,-4
   13b18:	00848433          	add	s0,s1,s0
   13b1c:	41440433          	sub	s0,s0,s4
   13b20:	00c45413          	srl	s0,s0,0xc
   13b24:	fff40413          	add	s0,s0,-1
   13b28:	00c41413          	sll	s0,s0,0xc
   13b2c:	00f44e63          	blt	s0,a5,13b48 <_malloc_trim_r+0x74>
   13b30:	00000593          	li	a1,0
   13b34:	00090513          	mv	a0,s2
   13b38:	0f0050ef          	jal	18c28 <_sbrk_r>
   13b3c:	0109b783          	ld	a5,16(s3)
   13b40:	009787b3          	add	a5,a5,s1
   13b44:	02f50863          	beq	a0,a5,13b74 <_malloc_trim_r+0xa0>
   13b48:	00090513          	mv	a0,s2
   13b4c:	649030ef          	jal	17994 <__malloc_unlock>
   13b50:	02813083          	ld	ra,40(sp)
   13b54:	02013403          	ld	s0,32(sp)
   13b58:	01813483          	ld	s1,24(sp)
   13b5c:	01013903          	ld	s2,16(sp)
   13b60:	00813983          	ld	s3,8(sp)
   13b64:	00013a03          	ld	s4,0(sp)
   13b68:	00000513          	li	a0,0
   13b6c:	03010113          	add	sp,sp,48
   13b70:	00008067          	ret
   13b74:	408005b3          	neg	a1,s0
   13b78:	00090513          	mv	a0,s2
   13b7c:	0ac050ef          	jal	18c28 <_sbrk_r>
   13b80:	fff00793          	li	a5,-1
   13b84:	04f50a63          	beq	a0,a5,13bd8 <_malloc_trim_r+0x104>
   13b88:	000267b7          	lui	a5,0x26
   13b8c:	b5878793          	add	a5,a5,-1192 # 25b58 <__malloc_current_mallinfo>
   13b90:	0007a703          	lw	a4,0(a5)
   13b94:	0109b683          	ld	a3,16(s3)
   13b98:	408484b3          	sub	s1,s1,s0
   13b9c:	0014e493          	or	s1,s1,1
   13ba0:	4087073b          	subw	a4,a4,s0
   13ba4:	00090513          	mv	a0,s2
   13ba8:	0096b423          	sd	s1,8(a3)
   13bac:	00e7a023          	sw	a4,0(a5)
   13bb0:	5e5030ef          	jal	17994 <__malloc_unlock>
   13bb4:	02813083          	ld	ra,40(sp)
   13bb8:	02013403          	ld	s0,32(sp)
   13bbc:	01813483          	ld	s1,24(sp)
   13bc0:	01013903          	ld	s2,16(sp)
   13bc4:	00813983          	ld	s3,8(sp)
   13bc8:	00013a03          	ld	s4,0(sp)
   13bcc:	00100513          	li	a0,1
   13bd0:	03010113          	add	sp,sp,48
   13bd4:	00008067          	ret
   13bd8:	00000593          	li	a1,0
   13bdc:	00090513          	mv	a0,s2
   13be0:	048050ef          	jal	18c28 <_sbrk_r>
   13be4:	0109b703          	ld	a4,16(s3)
   13be8:	01f00693          	li	a3,31
   13bec:	40e507b3          	sub	a5,a0,a4
   13bf0:	f4f6dce3          	bge	a3,a5,13b48 <_malloc_trim_r+0x74>
   13bf4:	7601b683          	ld	a3,1888(gp) # 25ae0 <__malloc_sbrk_base>
   13bf8:	0017e793          	or	a5,a5,1
   13bfc:	00f73423          	sd	a5,8(a4)
   13c00:	40d50533          	sub	a0,a0,a3
   13c04:	000266b7          	lui	a3,0x26
   13c08:	b4a6ac23          	sw	a0,-1192(a3) # 25b58 <__malloc_current_mallinfo>
   13c0c:	f3dff06f          	j	13b48 <_malloc_trim_r+0x74>

0000000000013c10 <_free_r>:
   13c10:	18058863          	beqz	a1,13da0 <_free_r+0x190>
   13c14:	fe010113          	add	sp,sp,-32
   13c18:	00813823          	sd	s0,16(sp)
   13c1c:	00913423          	sd	s1,8(sp)
   13c20:	00058413          	mv	s0,a1
   13c24:	00050493          	mv	s1,a0
   13c28:	00113c23          	sd	ra,24(sp)
   13c2c:	565030ef          	jal	17990 <__malloc_lock>
   13c30:	ff843503          	ld	a0,-8(s0)
   13c34:	ff040713          	add	a4,s0,-16
   13c38:	000255b7          	lui	a1,0x25
   13c3c:	ffe57793          	and	a5,a0,-2
   13c40:	00f70633          	add	a2,a4,a5
   13c44:	27058593          	add	a1,a1,624 # 25270 <__malloc_av_>
   13c48:	00863683          	ld	a3,8(a2)
   13c4c:	0105b803          	ld	a6,16(a1)
   13c50:	ffc6f693          	and	a3,a3,-4
   13c54:	1ac80863          	beq	a6,a2,13e04 <_free_r+0x1f4>
   13c58:	00d63423          	sd	a3,8(a2)
   13c5c:	00157513          	and	a0,a0,1
   13c60:	00d60833          	add	a6,a2,a3
   13c64:	0a051463          	bnez	a0,13d0c <_free_r+0xfc>
   13c68:	ff043303          	ld	t1,-16(s0)
   13c6c:	00883803          	ld	a6,8(a6)
   13c70:	00025537          	lui	a0,0x25
   13c74:	40670733          	sub	a4,a4,t1
   13c78:	01073883          	ld	a7,16(a4)
   13c7c:	28050513          	add	a0,a0,640 # 25280 <__malloc_av_+0x10>
   13c80:	006787b3          	add	a5,a5,t1
   13c84:	00187813          	and	a6,a6,1
   13c88:	14a88863          	beq	a7,a0,13dd8 <_free_r+0x1c8>
   13c8c:	01873303          	ld	t1,24(a4)
   13c90:	0068bc23          	sd	t1,24(a7)
   13c94:	01133823          	sd	a7,16(t1)
   13c98:	1a080c63          	beqz	a6,13e50 <_free_r+0x240>
   13c9c:	0017e693          	or	a3,a5,1
   13ca0:	00d73423          	sd	a3,8(a4)
   13ca4:	00f63023          	sd	a5,0(a2)
   13ca8:	1ff00693          	li	a3,511
   13cac:	08f6e063          	bltu	a3,a5,13d2c <_free_r+0x11c>
   13cb0:	0037d793          	srl	a5,a5,0x3
   13cb4:	0017869b          	addw	a3,a5,1
   13cb8:	0016969b          	sllw	a3,a3,0x1
   13cbc:	00369693          	sll	a3,a3,0x3
   13cc0:	0085b803          	ld	a6,8(a1)
   13cc4:	00d586b3          	add	a3,a1,a3
   13cc8:	0006b503          	ld	a0,0(a3)
   13ccc:	4027d61b          	sraw	a2,a5,0x2
   13cd0:	00100793          	li	a5,1
   13cd4:	00c797b3          	sll	a5,a5,a2
   13cd8:	0107e7b3          	or	a5,a5,a6
   13cdc:	ff068613          	add	a2,a3,-16
   13ce0:	00c73c23          	sd	a2,24(a4)
   13ce4:	00a73823          	sd	a0,16(a4)
   13ce8:	00f5b423          	sd	a5,8(a1)
   13cec:	00e6b023          	sd	a4,0(a3)
   13cf0:	00e53c23          	sd	a4,24(a0)
   13cf4:	01013403          	ld	s0,16(sp)
   13cf8:	01813083          	ld	ra,24(sp)
   13cfc:	00048513          	mv	a0,s1
   13d00:	00813483          	ld	s1,8(sp)
   13d04:	02010113          	add	sp,sp,32
   13d08:	48d0306f          	j	17994 <__malloc_unlock>
   13d0c:	00883503          	ld	a0,8(a6)
   13d10:	00157513          	and	a0,a0,1
   13d14:	08050863          	beqz	a0,13da4 <_free_r+0x194>
   13d18:	0017e693          	or	a3,a5,1
   13d1c:	fed43c23          	sd	a3,-8(s0)
   13d20:	00f63023          	sd	a5,0(a2)
   13d24:	1ff00693          	li	a3,511
   13d28:	f8f6f4e3          	bgeu	a3,a5,13cb0 <_free_r+0xa0>
   13d2c:	0097d693          	srl	a3,a5,0x9
   13d30:	00400613          	li	a2,4
   13d34:	12d66263          	bltu	a2,a3,13e58 <_free_r+0x248>
   13d38:	0067d693          	srl	a3,a5,0x6
   13d3c:	0396851b          	addw	a0,a3,57
   13d40:	0015151b          	sllw	a0,a0,0x1
   13d44:	0386861b          	addw	a2,a3,56
   13d48:	00351513          	sll	a0,a0,0x3
   13d4c:	00a58533          	add	a0,a1,a0
   13d50:	00053683          	ld	a3,0(a0)
   13d54:	ff050513          	add	a0,a0,-16
   13d58:	00d51863          	bne	a0,a3,13d68 <_free_r+0x158>
   13d5c:	15c0006f          	j	13eb8 <_free_r+0x2a8>
   13d60:	0106b683          	ld	a3,16(a3)
   13d64:	00d50863          	beq	a0,a3,13d74 <_free_r+0x164>
   13d68:	0086b603          	ld	a2,8(a3)
   13d6c:	ffc67613          	and	a2,a2,-4
   13d70:	fec7e8e3          	bltu	a5,a2,13d60 <_free_r+0x150>
   13d74:	0186b503          	ld	a0,24(a3)
   13d78:	00a73c23          	sd	a0,24(a4)
   13d7c:	00d73823          	sd	a3,16(a4)
   13d80:	01013403          	ld	s0,16(sp)
   13d84:	00e53823          	sd	a4,16(a0)
   13d88:	01813083          	ld	ra,24(sp)
   13d8c:	00048513          	mv	a0,s1
   13d90:	00813483          	ld	s1,8(sp)
   13d94:	00e6bc23          	sd	a4,24(a3)
   13d98:	02010113          	add	sp,sp,32
   13d9c:	3f90306f          	j	17994 <__malloc_unlock>
   13da0:	00008067          	ret
   13da4:	00025537          	lui	a0,0x25
   13da8:	00d787b3          	add	a5,a5,a3
   13dac:	28050513          	add	a0,a0,640 # 25280 <__malloc_av_+0x10>
   13db0:	01063683          	ld	a3,16(a2)
   13db4:	0ea68063          	beq	a3,a0,13e94 <_free_r+0x284>
   13db8:	01863803          	ld	a6,24(a2)
   13dbc:	0017e513          	or	a0,a5,1
   13dc0:	00f70633          	add	a2,a4,a5
   13dc4:	0106bc23          	sd	a6,24(a3)
   13dc8:	00d83823          	sd	a3,16(a6)
   13dcc:	00a73423          	sd	a0,8(a4)
   13dd0:	00f63023          	sd	a5,0(a2)
   13dd4:	ed5ff06f          	j	13ca8 <_free_r+0x98>
   13dd8:	14081463          	bnez	a6,13f20 <_free_r+0x310>
   13ddc:	01063583          	ld	a1,16(a2)
   13de0:	01863603          	ld	a2,24(a2)
   13de4:	00f686b3          	add	a3,a3,a5
   13de8:	0016e793          	or	a5,a3,1
   13dec:	00c5bc23          	sd	a2,24(a1)
   13df0:	00b63823          	sd	a1,16(a2)
   13df4:	00f73423          	sd	a5,8(a4)
   13df8:	00d70733          	add	a4,a4,a3
   13dfc:	00d73023          	sd	a3,0(a4)
   13e00:	ef5ff06f          	j	13cf4 <_free_r+0xe4>
   13e04:	00157513          	and	a0,a0,1
   13e08:	00d786b3          	add	a3,a5,a3
   13e0c:	02051063          	bnez	a0,13e2c <_free_r+0x21c>
   13e10:	ff043503          	ld	a0,-16(s0)
   13e14:	40a70733          	sub	a4,a4,a0
   13e18:	01873783          	ld	a5,24(a4)
   13e1c:	01073603          	ld	a2,16(a4)
   13e20:	00a686b3          	add	a3,a3,a0
   13e24:	00f63c23          	sd	a5,24(a2)
   13e28:	00c7b823          	sd	a2,16(a5)
   13e2c:	0016e613          	or	a2,a3,1
   13e30:	7681b783          	ld	a5,1896(gp) # 25ae8 <__malloc_trim_threshold>
   13e34:	00c73423          	sd	a2,8(a4)
   13e38:	00e5b823          	sd	a4,16(a1)
   13e3c:	eaf6ece3          	bltu	a3,a5,13cf4 <_free_r+0xe4>
   13e40:	7881b583          	ld	a1,1928(gp) # 25b08 <__malloc_top_pad>
   13e44:	00048513          	mv	a0,s1
   13e48:	c8dff0ef          	jal	13ad4 <_malloc_trim_r>
   13e4c:	ea9ff06f          	j	13cf4 <_free_r+0xe4>
   13e50:	00d787b3          	add	a5,a5,a3
   13e54:	f5dff06f          	j	13db0 <_free_r+0x1a0>
   13e58:	01400613          	li	a2,20
   13e5c:	02d67263          	bgeu	a2,a3,13e80 <_free_r+0x270>
   13e60:	05400613          	li	a2,84
   13e64:	06d66863          	bltu	a2,a3,13ed4 <_free_r+0x2c4>
   13e68:	00c7d693          	srl	a3,a5,0xc
   13e6c:	06f6851b          	addw	a0,a3,111
   13e70:	0015151b          	sllw	a0,a0,0x1
   13e74:	06e6861b          	addw	a2,a3,110
   13e78:	00351513          	sll	a0,a0,0x3
   13e7c:	ed1ff06f          	j	13d4c <_free_r+0x13c>
   13e80:	05c6851b          	addw	a0,a3,92
   13e84:	0015151b          	sllw	a0,a0,0x1
   13e88:	05b6861b          	addw	a2,a3,91
   13e8c:	00351513          	sll	a0,a0,0x3
   13e90:	ebdff06f          	j	13d4c <_free_r+0x13c>
   13e94:	02e5b423          	sd	a4,40(a1)
   13e98:	02e5b023          	sd	a4,32(a1)
   13e9c:	0017e693          	or	a3,a5,1
   13ea0:	00a73c23          	sd	a0,24(a4)
   13ea4:	00a73823          	sd	a0,16(a4)
   13ea8:	00d73423          	sd	a3,8(a4)
   13eac:	00f70733          	add	a4,a4,a5
   13eb0:	00f73023          	sd	a5,0(a4)
   13eb4:	e41ff06f          	j	13cf4 <_free_r+0xe4>
   13eb8:	0085b803          	ld	a6,8(a1)
   13ebc:	4026561b          	sraw	a2,a2,0x2
   13ec0:	00100793          	li	a5,1
   13ec4:	00c797b3          	sll	a5,a5,a2
   13ec8:	0107e7b3          	or	a5,a5,a6
   13ecc:	00f5b423          	sd	a5,8(a1)
   13ed0:	ea9ff06f          	j	13d78 <_free_r+0x168>
   13ed4:	15400613          	li	a2,340
   13ed8:	00d66e63          	bltu	a2,a3,13ef4 <_free_r+0x2e4>
   13edc:	00f7d693          	srl	a3,a5,0xf
   13ee0:	0786851b          	addw	a0,a3,120
   13ee4:	0015151b          	sllw	a0,a0,0x1
   13ee8:	0776861b          	addw	a2,a3,119
   13eec:	00351513          	sll	a0,a0,0x3
   13ef0:	e5dff06f          	j	13d4c <_free_r+0x13c>
   13ef4:	55400613          	li	a2,1364
   13ef8:	00d66e63          	bltu	a2,a3,13f14 <_free_r+0x304>
   13efc:	0127d693          	srl	a3,a5,0x12
   13f00:	07d6851b          	addw	a0,a3,125
   13f04:	0015151b          	sllw	a0,a0,0x1
   13f08:	07c6861b          	addw	a2,a3,124
   13f0c:	00351513          	sll	a0,a0,0x3
   13f10:	e3dff06f          	j	13d4c <_free_r+0x13c>
   13f14:	7f000513          	li	a0,2032
   13f18:	07e00613          	li	a2,126
   13f1c:	e31ff06f          	j	13d4c <_free_r+0x13c>
   13f20:	0017e693          	or	a3,a5,1
   13f24:	00d73423          	sd	a3,8(a4)
   13f28:	00f63023          	sd	a5,0(a2)
   13f2c:	dc9ff06f          	j	13cf4 <_free_r+0xe4>

0000000000013f30 <_fwalk>:
   13f30:	fb010113          	add	sp,sp,-80
   13f34:	03213823          	sd	s2,48(sp)
   13f38:	03313423          	sd	s3,40(sp)
   13f3c:	03413023          	sd	s4,32(sp)
   13f40:	01513c23          	sd	s5,24(sp)
   13f44:	01613823          	sd	s6,16(sp)
   13f48:	01713423          	sd	s7,8(sp)
   13f4c:	04113423          	sd	ra,72(sp)
   13f50:	04813023          	sd	s0,64(sp)
   13f54:	02913c23          	sd	s1,56(sp)
   13f58:	00058a93          	mv	s5,a1
   13f5c:	52050993          	add	s3,a0,1312
   13f60:	00000913          	li	s2,0
   13f64:	0b000b13          	li	s6,176
   13f68:	00100b93          	li	s7,1
   13f6c:	fff00a13          	li	s4,-1
   13f70:	0089a483          	lw	s1,8(s3)
   13f74:	0109b403          	ld	s0,16(s3)
   13f78:	02905e63          	blez	s1,13fb4 <_fwalk+0x84>
   13f7c:	02049493          	sll	s1,s1,0x20
   13f80:	0204d493          	srl	s1,s1,0x20
   13f84:	036484b3          	mul	s1,s1,s6
   13f88:	009404b3          	add	s1,s0,s1
   13f8c:	01045783          	lhu	a5,16(s0)
   13f90:	00fbfe63          	bgeu	s7,a5,13fac <_fwalk+0x7c>
   13f94:	01241783          	lh	a5,18(s0)
   13f98:	00040513          	mv	a0,s0
   13f9c:	01478863          	beq	a5,s4,13fac <_fwalk+0x7c>
   13fa0:	000a80e7          	jalr	s5
   13fa4:	01256933          	or	s2,a0,s2
   13fa8:	0009091b          	sext.w	s2,s2
   13fac:	0b040413          	add	s0,s0,176
   13fb0:	fc849ee3          	bne	s1,s0,13f8c <_fwalk+0x5c>
   13fb4:	0009b983          	ld	s3,0(s3)
   13fb8:	fa099ce3          	bnez	s3,13f70 <_fwalk+0x40>
   13fbc:	04813083          	ld	ra,72(sp)
   13fc0:	04013403          	ld	s0,64(sp)
   13fc4:	03813483          	ld	s1,56(sp)
   13fc8:	02813983          	ld	s3,40(sp)
   13fcc:	02013a03          	ld	s4,32(sp)
   13fd0:	01813a83          	ld	s5,24(sp)
   13fd4:	01013b03          	ld	s6,16(sp)
   13fd8:	00813b83          	ld	s7,8(sp)
   13fdc:	00090513          	mv	a0,s2
   13fe0:	03013903          	ld	s2,48(sp)
   13fe4:	05010113          	add	sp,sp,80
   13fe8:	00008067          	ret

0000000000013fec <_fwalk_reent>:
   13fec:	fb010113          	add	sp,sp,-80
   13ff0:	03213823          	sd	s2,48(sp)
   13ff4:	03313423          	sd	s3,40(sp)
   13ff8:	03413023          	sd	s4,32(sp)
   13ffc:	01513c23          	sd	s5,24(sp)
   14000:	01613823          	sd	s6,16(sp)
   14004:	01713423          	sd	s7,8(sp)
   14008:	01813023          	sd	s8,0(sp)
   1400c:	04113423          	sd	ra,72(sp)
   14010:	04813023          	sd	s0,64(sp)
   14014:	02913c23          	sd	s1,56(sp)
   14018:	00050993          	mv	s3,a0
   1401c:	00058b13          	mv	s6,a1
   14020:	52050a13          	add	s4,a0,1312
   14024:	00000913          	li	s2,0
   14028:	0b000b93          	li	s7,176
   1402c:	00100c13          	li	s8,1
   14030:	fff00a93          	li	s5,-1
   14034:	008a2483          	lw	s1,8(s4)
   14038:	010a3403          	ld	s0,16(s4)
   1403c:	04905063          	blez	s1,1407c <_fwalk_reent+0x90>
   14040:	02049493          	sll	s1,s1,0x20
   14044:	0204d493          	srl	s1,s1,0x20
   14048:	037484b3          	mul	s1,s1,s7
   1404c:	009404b3          	add	s1,s0,s1
   14050:	01045783          	lhu	a5,16(s0)
   14054:	02fc7063          	bgeu	s8,a5,14074 <_fwalk_reent+0x88>
   14058:	01241783          	lh	a5,18(s0)
   1405c:	00040593          	mv	a1,s0
   14060:	00098513          	mv	a0,s3
   14064:	01578863          	beq	a5,s5,14074 <_fwalk_reent+0x88>
   14068:	000b00e7          	jalr	s6
   1406c:	01256933          	or	s2,a0,s2
   14070:	0009091b          	sext.w	s2,s2
   14074:	0b040413          	add	s0,s0,176
   14078:	fc849ce3          	bne	s1,s0,14050 <_fwalk_reent+0x64>
   1407c:	000a3a03          	ld	s4,0(s4)
   14080:	fa0a1ae3          	bnez	s4,14034 <_fwalk_reent+0x48>
   14084:	04813083          	ld	ra,72(sp)
   14088:	04013403          	ld	s0,64(sp)
   1408c:	03813483          	ld	s1,56(sp)
   14090:	02813983          	ld	s3,40(sp)
   14094:	02013a03          	ld	s4,32(sp)
   14098:	01813a83          	ld	s5,24(sp)
   1409c:	01013b03          	ld	s6,16(sp)
   140a0:	00813b83          	ld	s7,8(sp)
   140a4:	00013c03          	ld	s8,0(sp)
   140a8:	00090513          	mv	a0,s2
   140ac:	03013903          	ld	s2,48(sp)
   140b0:	05010113          	add	sp,sp,80
   140b4:	00008067          	ret

00000000000140b8 <eshdn1>:
   140b8:	00450693          	add	a3,a0,4
   140bc:	00000713          	li	a4,0
   140c0:	01a50513          	add	a0,a0,26
   140c4:	ffff8837          	lui	a6,0xffff8
   140c8:	0006d783          	lhu	a5,0(a3)
   140cc:	0017f613          	and	a2,a5,1
   140d0:	00060463          	beqz	a2,140d8 <eshdn1+0x20>
   140d4:	00176713          	or	a4,a4,1
   140d8:	00277613          	and	a2,a4,2
   140dc:	0017d793          	srl	a5,a5,0x1
   140e0:	0017171b          	sllw	a4,a4,0x1
   140e4:	0107e5b3          	or	a1,a5,a6
   140e8:	00060663          	beqz	a2,140f4 <eshdn1+0x3c>
   140ec:	03059793          	sll	a5,a1,0x30
   140f0:	0307d793          	srl	a5,a5,0x30
   140f4:	00f69023          	sh	a5,0(a3)
   140f8:	03071713          	sll	a4,a4,0x30
   140fc:	00268693          	add	a3,a3,2
   14100:	03075713          	srl	a4,a4,0x30
   14104:	fcd512e3          	bne	a0,a3,140c8 <eshdn1+0x10>
   14108:	00008067          	ret

000000000001410c <eshup1>:
   1410c:	01850693          	add	a3,a0,24
   14110:	00000713          	li	a4,0
   14114:	00250513          	add	a0,a0,2
   14118:	0006d783          	lhu	a5,0(a3)
   1411c:	00f7d613          	srl	a2,a5,0xf
   14120:	0017979b          	sllw	a5,a5,0x1
   14124:	00060463          	beqz	a2,1412c <eshup1+0x20>
   14128:	00176713          	or	a4,a4,1
   1412c:	00277613          	and	a2,a4,2
   14130:	03079793          	sll	a5,a5,0x30
   14134:	0017171b          	sllw	a4,a4,0x1
   14138:	0307d793          	srl	a5,a5,0x30
   1413c:	00060463          	beqz	a2,14144 <eshup1+0x38>
   14140:	0017e793          	or	a5,a5,1
   14144:	00f69023          	sh	a5,0(a3)
   14148:	03071713          	sll	a4,a4,0x30
   1414c:	ffe68693          	add	a3,a3,-2
   14150:	03075713          	srl	a4,a4,0x30
   14154:	fcd512e3          	bne	a0,a3,14118 <eshup1+0xc>
   14158:	00008067          	ret

000000000001415c <m16m>:
   1415c:	fe010113          	add	sp,sp,-32
   14160:	00010e37          	lui	t3,0x10
   14164:	00011b23          	sh	zero,22(sp)
   14168:	00011c23          	sh	zero,24(sp)
   1416c:	01858593          	add	a1,a1,24
   14170:	01810793          	add	a5,sp,24
   14174:	00410813          	add	a6,sp,4
   14178:	fffe0e13          	add	t3,t3,-1 # ffff <exit-0xe9>
   1417c:	0005d703          	lhu	a4,0(a1)
   14180:	ffe78793          	add	a5,a5,-2
   14184:	ffe58593          	add	a1,a1,-2
   14188:	02070a63          	beqz	a4,141bc <m16m+0x60>
   1418c:	02a70733          	mul	a4,a4,a0
   14190:	0027d883          	lhu	a7,2(a5)
   14194:	0007d303          	lhu	t1,0(a5)
   14198:	01c776b3          	and	a3,a4,t3
   1419c:	011686b3          	add	a3,a3,a7
   141a0:	01075713          	srl	a4,a4,0x10
   141a4:	0106d893          	srl	a7,a3,0x10
   141a8:	00670733          	add	a4,a4,t1
   141ac:	01170733          	add	a4,a4,a7
   141b0:	00e79023          	sh	a4,0(a5)
   141b4:	00d79123          	sh	a3,2(a5)
   141b8:	01075713          	srl	a4,a4,0x10
   141bc:	fee79f23          	sh	a4,-2(a5)
   141c0:	fb079ee3          	bne	a5,a6,1417c <m16m+0x20>
   141c4:	00460613          	add	a2,a2,4
   141c8:	01a10693          	add	a3,sp,26
   141cc:	0007d703          	lhu	a4,0(a5)
   141d0:	00278793          	add	a5,a5,2
   141d4:	00260613          	add	a2,a2,2
   141d8:	fee61f23          	sh	a4,-2(a2)
   141dc:	fef698e3          	bne	a3,a5,141cc <m16m+0x70>
   141e0:	02010113          	add	sp,sp,32
   141e4:	00008067          	ret

00000000000141e8 <emovo.constprop.0>:
   141e8:	00055703          	lhu	a4,0(a0)
   141ec:	00255783          	lhu	a5,2(a0)
   141f0:	00070663          	beqz	a4,141fc <emovo.constprop.0+0x14>
   141f4:	00008737          	lui	a4,0x8
   141f8:	00e7e7b3          	or	a5,a5,a4
   141fc:	00f59923          	sh	a5,18(a1)
   14200:	00255703          	lhu	a4,2(a0)
   14204:	000087b7          	lui	a5,0x8
   14208:	fff78793          	add	a5,a5,-1 # 7fff <exit-0x80e9>
   1420c:	02f70463          	beq	a4,a5,14234 <emovo.constprop.0+0x4c>
   14210:	00650793          	add	a5,a0,6
   14214:	01058593          	add	a1,a1,16
   14218:	01850513          	add	a0,a0,24
   1421c:	0007d703          	lhu	a4,0(a5)
   14220:	00278793          	add	a5,a5,2
   14224:	ffe58593          	add	a1,a1,-2
   14228:	00e59123          	sh	a4,2(a1)
   1422c:	fea798e3          	bne	a5,a0,1421c <emovo.constprop.0+0x34>
   14230:	00008067          	ret
   14234:	00650793          	add	a5,a0,6
   14238:	01a50513          	add	a0,a0,26
   1423c:	0007d703          	lhu	a4,0(a5)
   14240:	00278793          	add	a5,a5,2
   14244:	02071a63          	bnez	a4,14278 <emovo.constprop.0+0x90>
   14248:	fef51ae3          	bne	a0,a5,1423c <emovo.constprop.0+0x54>
   1424c:	01258713          	add	a4,a1,18
   14250:	00058793          	mv	a5,a1
   14254:	00278793          	add	a5,a5,2
   14258:	fe079f23          	sh	zero,-2(a5)
   1425c:	fee79ce3          	bne	a5,a4,14254 <emovo.constprop.0+0x6c>
   14260:	0125d783          	lhu	a5,18(a1)
   14264:	00008737          	lui	a4,0x8
   14268:	fff70713          	add	a4,a4,-1 # 7fff <exit-0x80e9>
   1426c:	00e7e7b3          	or	a5,a5,a4
   14270:	00f59923          	sh	a5,18(a1)
   14274:	00008067          	ret
   14278:	01058713          	add	a4,a1,16
   1427c:	00058793          	mv	a5,a1
   14280:	00278793          	add	a5,a5,2
   14284:	fe079f23          	sh	zero,-2(a5)
   14288:	fee79ce3          	bne	a5,a4,14280 <emovo.constprop.0+0x98>
   1428c:	ffffc7b7          	lui	a5,0xffffc
   14290:	00f59823          	sh	a5,16(a1)
   14294:	ffff87b7          	lui	a5,0xffff8
   14298:	fff7c793          	not	a5,a5
   1429c:	00f59923          	sh	a5,18(a1)
   142a0:	00008067          	ret

00000000000142a4 <enormlz>:
   142a4:	00455783          	lhu	a5,4(a0)
   142a8:	fe010113          	add	sp,sp,-32
   142ac:	00913423          	sd	s1,8(sp)
   142b0:	00113c23          	sd	ra,24(sp)
   142b4:	00813823          	sd	s0,16(sp)
   142b8:	01213023          	sd	s2,0(sp)
   142bc:	00050493          	mv	s1,a0
   142c0:	0c079663          	bnez	a5,1438c <enormlz+0xe8>
   142c4:	00655783          	lhu	a5,6(a0)
   142c8:	00000413          	li	s0,0
   142cc:	00f7d713          	srl	a4,a5,0xf
   142d0:	0a071063          	bnez	a4,14370 <enormlz+0xcc>
   142d4:	01850693          	add	a3,a0,24
   142d8:	0a000613          	li	a2,160
   142dc:	02079663          	bnez	a5,14308 <enormlz+0x64>
   142e0:	00448793          	add	a5,s1,4
   142e4:	0027d703          	lhu	a4,2(a5) # ffffffffffff8002 <__BSS_END__+0xfffffffffffd2482>
   142e8:	00278793          	add	a5,a5,2
   142ec:	fee79f23          	sh	a4,-2(a5)
   142f0:	fed79ae3          	bne	a5,a3,142e4 <enormlz+0x40>
   142f4:	00049c23          	sh	zero,24(s1)
   142f8:	0104041b          	addw	s0,s0,16
   142fc:	06c40a63          	beq	s0,a2,14370 <enormlz+0xcc>
   14300:	0064d783          	lhu	a5,6(s1)
   14304:	fc078ee3          	beqz	a5,142e0 <enormlz+0x3c>
   14308:	0ff00713          	li	a4,255
   1430c:	04f76063          	bltu	a4,a5,1434c <enormlz+0xa8>
   14310:	01848813          	add	a6,s1,24
   14314:	00248593          	add	a1,s1,2
   14318:	0ff00513          	li	a0,255
   1431c:	00000793          	li	a5,0
   14320:	00080713          	mv	a4,a6
   14324:	00075683          	lhu	a3,0(a4)
   14328:	ffe70713          	add	a4,a4,-2
   1432c:	0086961b          	sllw	a2,a3,0x8
   14330:	00c7e7b3          	or	a5,a5,a2
   14334:	00f71123          	sh	a5,2(a4)
   14338:	0086d793          	srl	a5,a3,0x8
   1433c:	feb714e3          	bne	a4,a1,14324 <enormlz+0x80>
   14340:	0064d783          	lhu	a5,6(s1)
   14344:	0084041b          	addw	s0,s0,8
   14348:	fcf57ae3          	bgeu	a0,a5,1431c <enormlz+0x78>
   1434c:	0a000913          	li	s2,160
   14350:	0140006f          	j	14364 <enormlz+0xc0>
   14354:	0014041b          	addw	s0,s0,1
   14358:	db5ff0ef          	jal	1410c <eshup1>
   1435c:	00894a63          	blt	s2,s0,14370 <enormlz+0xcc>
   14360:	0064d783          	lhu	a5,6(s1)
   14364:	00f7d793          	srl	a5,a5,0xf
   14368:	00048513          	mv	a0,s1
   1436c:	fe0784e3          	beqz	a5,14354 <enormlz+0xb0>
   14370:	01813083          	ld	ra,24(sp)
   14374:	00040513          	mv	a0,s0
   14378:	01013403          	ld	s0,16(sp)
   1437c:	00813483          	ld	s1,8(sp)
   14380:	00013903          	ld	s2,0(sp)
   14384:	02010113          	add	sp,sp,32
   14388:	00008067          	ret
   1438c:	0ff00713          	li	a4,255
   14390:	00000413          	li	s0,0
   14394:	04f76063          	bltu	a4,a5,143d4 <enormlz+0x130>
   14398:	f6f00913          	li	s2,-145
   1439c:	0140006f          	j	143b0 <enormlz+0x10c>
   143a0:	fff4041b          	addw	s0,s0,-1
   143a4:	d15ff0ef          	jal	140b8 <eshdn1>
   143a8:	fd2404e3          	beq	s0,s2,14370 <enormlz+0xcc>
   143ac:	0044d783          	lhu	a5,4(s1)
   143b0:	00048513          	mv	a0,s1
   143b4:	fe0796e3          	bnez	a5,143a0 <enormlz+0xfc>
   143b8:	01813083          	ld	ra,24(sp)
   143bc:	00040513          	mv	a0,s0
   143c0:	01013403          	ld	s0,16(sp)
   143c4:	00813483          	ld	s1,8(sp)
   143c8:	00013903          	ld	s2,0(sp)
   143cc:	02010113          	add	sp,sp,32
   143d0:	00008067          	ret
   143d4:	00450713          	add	a4,a0,4
   143d8:	01a50593          	add	a1,a0,26
   143dc:	00000793          	li	a5,0
   143e0:	00075683          	lhu	a3,0(a4)
   143e4:	00270713          	add	a4,a4,2
   143e8:	0086d61b          	srlw	a2,a3,0x8
   143ec:	00c7e7b3          	or	a5,a5,a2
   143f0:	0086969b          	sllw	a3,a3,0x8
   143f4:	fef71f23          	sh	a5,-2(a4)
   143f8:	03069793          	sll	a5,a3,0x30
   143fc:	0307d793          	srl	a5,a5,0x30
   14400:	feb710e3          	bne	a4,a1,143e0 <enormlz+0x13c>
   14404:	0044d783          	lhu	a5,4(s1)
   14408:	ff800413          	li	s0,-8
   1440c:	f8dff06f          	j	14398 <enormlz+0xf4>

0000000000014410 <eshift.part.0>:
   14410:	fd010113          	add	sp,sp,-48
   14414:	02813023          	sd	s0,32(sp)
   14418:	00913c23          	sd	s1,24(sp)
   1441c:	02113423          	sd	ra,40(sp)
   14420:	01213823          	sd	s2,16(sp)
   14424:	01313423          	sd	s3,8(sp)
   14428:	00058493          	mv	s1,a1
   1442c:	00050413          	mv	s0,a0
   14430:	0a05c463          	bltz	a1,144d8 <eshift.part.0+0xc8>
   14434:	00f00793          	li	a5,15
   14438:	00058613          	mv	a2,a1
   1443c:	00450513          	add	a0,a0,4
   14440:	01840693          	add	a3,s0,24
   14444:	00f00593          	li	a1,15
   14448:	0297d463          	bge	a5,s1,14470 <eshift.part.0+0x60>
   1444c:	00050793          	mv	a5,a0
   14450:	0027d703          	lhu	a4,2(a5)
   14454:	00278793          	add	a5,a5,2
   14458:	fee79f23          	sh	a4,-2(a5)
   1445c:	fef69ae3          	bne	a3,a5,14450 <eshift.part.0+0x40>
   14460:	00041c23          	sh	zero,24(s0)
   14464:	ff06061b          	addw	a2,a2,-16
   14468:	fec5c2e3          	blt	a1,a2,1444c <eshift.part.0+0x3c>
   1446c:	00f4f493          	and	s1,s1,15
   14470:	00700793          	li	a5,7
   14474:	0297d863          	bge	a5,s1,144a4 <eshift.part.0+0x94>
   14478:	01840713          	add	a4,s0,24
   1447c:	00240593          	add	a1,s0,2
   14480:	00000793          	li	a5,0
   14484:	00075683          	lhu	a3,0(a4)
   14488:	ffe70713          	add	a4,a4,-2
   1448c:	0086961b          	sllw	a2,a3,0x8
   14490:	00c7e7b3          	or	a5,a5,a2
   14494:	00f71123          	sh	a5,2(a4)
   14498:	0086d793          	srl	a5,a3,0x8
   1449c:	feb714e3          	bne	a4,a1,14484 <eshift.part.0+0x74>
   144a0:	ff84849b          	addw	s1,s1,-8
   144a4:	00048a63          	beqz	s1,144b8 <eshift.part.0+0xa8>
   144a8:	fff4849b          	addw	s1,s1,-1
   144ac:	00040513          	mv	a0,s0
   144b0:	c5dff0ef          	jal	1410c <eshup1>
   144b4:	fe049ae3          	bnez	s1,144a8 <eshift.part.0+0x98>
   144b8:	00000513          	li	a0,0
   144bc:	02813083          	ld	ra,40(sp)
   144c0:	02013403          	ld	s0,32(sp)
   144c4:	01813483          	ld	s1,24(sp)
   144c8:	01013903          	ld	s2,16(sp)
   144cc:	00813983          	ld	s3,8(sp)
   144d0:	03010113          	add	sp,sp,48
   144d4:	00008067          	ret
   144d8:	ff100793          	li	a5,-15
   144dc:	40b0093b          	negw	s2,a1
   144e0:	00000993          	li	s3,0
   144e4:	01850593          	add	a1,a0,24
   144e8:	00450693          	add	a3,a0,4
   144ec:	00f00613          	li	a2,15
   144f0:	0cf4dc63          	bge	s1,a5,145c8 <eshift.part.0+0x1b8>
   144f4:	01845703          	lhu	a4,24(s0)
   144f8:	00058793          	mv	a5,a1
   144fc:	00e9e9b3          	or	s3,s3,a4
   14500:	ffe7d703          	lhu	a4,-2(a5)
   14504:	ffe78793          	add	a5,a5,-2
   14508:	00e79123          	sh	a4,2(a5)
   1450c:	fed79ae3          	bne	a5,a3,14500 <eshift.part.0+0xf0>
   14510:	00041223          	sh	zero,4(s0)
   14514:	ff09091b          	addw	s2,s2,-16
   14518:	fd264ee3          	blt	a2,s2,144f4 <eshift.part.0+0xe4>
   1451c:	ff000913          	li	s2,-16
   14520:	ff100713          	li	a4,-15
   14524:	4099093b          	subw	s2,s2,s1
   14528:	00000793          	li	a5,0
   1452c:	08e4c863          	blt	s1,a4,145bc <eshift.part.0+0x1ac>
   14530:	00f9093b          	addw	s2,s2,a5
   14534:	00700793          	li	a5,7
   14538:	0327de63          	bge	a5,s2,14574 <eshift.part.0+0x164>
   1453c:	01844783          	lbu	a5,24(s0)
   14540:	01a40593          	add	a1,s0,26
   14544:	00f9e9b3          	or	s3,s3,a5
   14548:	00000793          	li	a5,0
   1454c:	0006d703          	lhu	a4,0(a3)
   14550:	00268693          	add	a3,a3,2
   14554:	0087561b          	srlw	a2,a4,0x8
   14558:	00c7e7b3          	or	a5,a5,a2
   1455c:	0087171b          	sllw	a4,a4,0x8
   14560:	fef69f23          	sh	a5,-2(a3)
   14564:	03071793          	sll	a5,a4,0x30
   14568:	0307d793          	srl	a5,a5,0x30
   1456c:	feb690e3          	bne	a3,a1,1454c <eshift.part.0+0x13c>
   14570:	ff89091b          	addw	s2,s2,-8
   14574:	01303533          	snez	a0,s3
   14578:	f40902e3          	beqz	s2,144bc <eshift.part.0+0xac>
   1457c:	01845783          	lhu	a5,24(s0)
   14580:	fff9091b          	addw	s2,s2,-1
   14584:	00040513          	mv	a0,s0
   14588:	0017f793          	and	a5,a5,1
   1458c:	00f9e9b3          	or	s3,s3,a5
   14590:	b29ff0ef          	jal	140b8 <eshdn1>
   14594:	fe0914e3          	bnez	s2,1457c <eshift.part.0+0x16c>
   14598:	02813083          	ld	ra,40(sp)
   1459c:	02013403          	ld	s0,32(sp)
   145a0:	0009899b          	sext.w	s3,s3
   145a4:	01813483          	ld	s1,24(sp)
   145a8:	01013903          	ld	s2,16(sp)
   145ac:	01303533          	snez	a0,s3
   145b0:	00813983          	ld	s3,8(sp)
   145b4:	03010113          	add	sp,sp,48
   145b8:	00008067          	ret
   145bc:	ff097793          	and	a5,s2,-16
   145c0:	40f007bb          	negw	a5,a5
   145c4:	f6dff06f          	j	14530 <eshift.part.0+0x120>
   145c8:	ff900793          	li	a5,-7
   145cc:	f6f4c8e3          	blt	s1,a5,1453c <eshift.part.0+0x12c>
   145d0:	fadff06f          	j	1457c <eshift.part.0+0x16c>

00000000000145d4 <emovi>:
   145d4:	01255783          	lhu	a5,18(a0)
   145d8:	000086b7          	lui	a3,0x8
   145dc:	fff68693          	add	a3,a3,-1 # 7fff <exit-0x80e9>
   145e0:	00f7d79b          	srlw	a5,a5,0xf
   145e4:	40f007bb          	negw	a5,a5
   145e8:	00f59023          	sh	a5,0(a1)
   145ec:	01255703          	lhu	a4,18(a0)
   145f0:	01050793          	add	a5,a0,16
   145f4:	00d77733          	and	a4,a4,a3
   145f8:	00e59123          	sh	a4,2(a1)
   145fc:	0007061b          	sext.w	a2,a4
   14600:	02d70663          	beq	a4,a3,1462c <emovi+0x58>
   14604:	00658713          	add	a4,a1,6
   14608:	00059223          	sh	zero,4(a1)
   1460c:	ffe50513          	add	a0,a0,-2
   14610:	0007d683          	lhu	a3,0(a5)
   14614:	ffe78793          	add	a5,a5,-2
   14618:	00270713          	add	a4,a4,2
   1461c:	fed71f23          	sh	a3,-2(a4)
   14620:	fea798e3          	bne	a5,a0,14610 <emovi+0x3c>
   14624:	00059c23          	sh	zero,24(a1)
   14628:	00008067          	ret
   1462c:	01255703          	lhu	a4,18(a0)
   14630:	00c77733          	and	a4,a4,a2
   14634:	00c71e63          	bne	a4,a2,14650 <emovi+0x7c>
   14638:	01250613          	add	a2,a0,18
   1463c:	00050713          	mv	a4,a0
   14640:	00075683          	lhu	a3,0(a4)
   14644:	00270713          	add	a4,a4,2
   14648:	02069063          	bnez	a3,14668 <emovi+0x94>
   1464c:	fec71ae3          	bne	a4,a2,14640 <emovi+0x6c>
   14650:	00458793          	add	a5,a1,4
   14654:	01a58593          	add	a1,a1,26
   14658:	00278793          	add	a5,a5,2
   1465c:	fe079f23          	sh	zero,-2(a5)
   14660:	feb79ce3          	bne	a5,a1,14658 <emovi+0x84>
   14664:	00008067          	ret
   14668:	00658713          	add	a4,a1,6
   1466c:	00059223          	sh	zero,4(a1)
   14670:	ffc50513          	add	a0,a0,-4
   14674:	0007d683          	lhu	a3,0(a5)
   14678:	ffe78793          	add	a5,a5,-2
   1467c:	00270713          	add	a4,a4,2
   14680:	fed71f23          	sh	a3,-2(a4)
   14684:	fef518e3          	bne	a0,a5,14674 <emovi+0xa0>
   14688:	00008067          	ret

000000000001468c <ecmp>:
   1468c:	01255783          	lhu	a5,18(a0)
   14690:	fb010113          	add	sp,sp,-80
   14694:	04813023          	sd	s0,64(sp)
   14698:	fff7c793          	not	a5,a5
   1469c:	04113423          	sd	ra,72(sp)
   146a0:	03179713          	sll	a4,a5,0x31
   146a4:	00058413          	mv	s0,a1
   146a8:	00071e63          	bnez	a4,146c4 <ecmp+0x38>
   146ac:	01250693          	add	a3,a0,18
   146b0:	00050793          	mv	a5,a0
   146b4:	0007d703          	lhu	a4,0(a5)
   146b8:	00278793          	add	a5,a5,2
   146bc:	08071c63          	bnez	a4,14754 <ecmp+0xc8>
   146c0:	fed79ae3          	bne	a5,a3,146b4 <ecmp+0x28>
   146c4:	01245783          	lhu	a5,18(s0)
   146c8:	fff7c793          	not	a5,a5
   146cc:	03179713          	sll	a4,a5,0x31
   146d0:	06070063          	beqz	a4,14730 <ecmp+0xa4>
   146d4:	00010593          	mv	a1,sp
   146d8:	efdff0ef          	jal	145d4 <emovi>
   146dc:	02010593          	add	a1,sp,32
   146e0:	00040513          	mv	a0,s0
   146e4:	ef1ff0ef          	jal	145d4 <emovi>
   146e8:	00015583          	lhu	a1,0(sp)
   146ec:	02015783          	lhu	a5,32(sp)
   146f0:	06b78c63          	beq	a5,a1,14768 <ecmp+0xdc>
   146f4:	00210793          	add	a5,sp,2
   146f8:	02210713          	add	a4,sp,34
   146fc:	01810613          	add	a2,sp,24
   14700:	0007d683          	lhu	a3,0(a5)
   14704:	00278793          	add	a5,a5,2
   14708:	0a069663          	bnez	a3,147b4 <ecmp+0x128>
   1470c:	00075683          	lhu	a3,0(a4)
   14710:	00270713          	add	a4,a4,2
   14714:	0a069063          	bnez	a3,147b4 <ecmp+0x128>
   14718:	fef614e3          	bne	a2,a5,14700 <ecmp+0x74>
   1471c:	00000513          	li	a0,0
   14720:	04813083          	ld	ra,72(sp)
   14724:	04013403          	ld	s0,64(sp)
   14728:	05010113          	add	sp,sp,80
   1472c:	00008067          	ret
   14730:	00040793          	mv	a5,s0
   14734:	0007d703          	lhu	a4,0(a5)
   14738:	01240693          	add	a3,s0,18
   1473c:	00278793          	add	a5,a5,2
   14740:	00071a63          	bnez	a4,14754 <ecmp+0xc8>
   14744:	f8d788e3          	beq	a5,a3,146d4 <ecmp+0x48>
   14748:	0007d703          	lhu	a4,0(a5)
   1474c:	00278793          	add	a5,a5,2
   14750:	fe070ae3          	beqz	a4,14744 <ecmp+0xb8>
   14754:	04813083          	ld	ra,72(sp)
   14758:	04013403          	ld	s0,64(sp)
   1475c:	ffe00513          	li	a0,-2
   14760:	05010113          	add	sp,sp,80
   14764:	00008067          	ret
   14768:	fff00513          	li	a0,-1
   1476c:	06058063          	beqz	a1,147cc <ecmp+0x140>
   14770:	00010793          	mv	a5,sp
   14774:	0007d603          	lhu	a2,0(a5)
   14778:	02015683          	lhu	a3,32(sp)
   1477c:	02010713          	add	a4,sp,32
   14780:	01810593          	add	a1,sp,24
   14784:	00278793          	add	a5,a5,2
   14788:	00270713          	add	a4,a4,2
   1478c:	00d61e63          	bne	a2,a3,147a8 <ecmp+0x11c>
   14790:	f8b786e3          	beq	a5,a1,1471c <ecmp+0x90>
   14794:	0007d603          	lhu	a2,0(a5)
   14798:	00075683          	lhu	a3,0(a4)
   1479c:	00278793          	add	a5,a5,2
   147a0:	00270713          	add	a4,a4,2
   147a4:	fed606e3          	beq	a2,a3,14790 <ecmp+0x104>
   147a8:	f6c6ece3          	bltu	a3,a2,14720 <ecmp+0x94>
   147ac:	40a0053b          	negw	a0,a0
   147b0:	f71ff06f          	j	14720 <ecmp+0x94>
   147b4:	02059063          	bnez	a1,147d4 <ecmp+0x148>
   147b8:	04813083          	ld	ra,72(sp)
   147bc:	04013403          	ld	s0,64(sp)
   147c0:	00100513          	li	a0,1
   147c4:	05010113          	add	sp,sp,80
   147c8:	00008067          	ret
   147cc:	00100513          	li	a0,1
   147d0:	fa1ff06f          	j	14770 <ecmp+0xe4>
   147d4:	fff00513          	li	a0,-1
   147d8:	f49ff06f          	j	14720 <ecmp+0x94>

00000000000147dc <emdnorm>:
   147dc:	fc010113          	add	sp,sp,-64
   147e0:	02813823          	sd	s0,48(sp)
   147e4:	02913423          	sd	s1,40(sp)
   147e8:	03213023          	sd	s2,32(sp)
   147ec:	01313c23          	sd	s3,24(sp)
   147f0:	01413823          	sd	s4,16(sp)
   147f4:	01513423          	sd	s5,8(sp)
   147f8:	00068913          	mv	s2,a3
   147fc:	00078413          	mv	s0,a5
   14800:	02113c23          	sd	ra,56(sp)
   14804:	00050493          	mv	s1,a0
   14808:	00058993          	mv	s3,a1
   1480c:	00060a13          	mv	s4,a2
   14810:	00070a93          	mv	s5,a4
   14814:	a91ff0ef          	jal	142a4 <enormlz>
   14818:	09000793          	li	a5,144
   1481c:	40a90933          	sub	s2,s2,a0
   14820:	18a7d863          	bge	a5,a0,149b0 <emdnorm+0x1d4>
   14824:	000087b7          	lui	a5,0x8
   14828:	ffe78793          	add	a5,a5,-2 # 7ffe <exit-0x80ea>
   1482c:	2d27da63          	bge	a5,s2,14b00 <emdnorm+0x324>
   14830:	220a8a63          	beqz	s5,14a64 <emdnorm+0x288>
   14834:	00442a83          	lw	s5,4(s0)
   14838:	00042783          	lw	a5,0(s0)
   1483c:	28fa8a63          	beq	s5,a5,14ad0 <emdnorm+0x2f4>
   14840:	01a40713          	add	a4,s0,26
   14844:	03440793          	add	a5,s0,52
   14848:	00270713          	add	a4,a4,2
   1484c:	fe071f23          	sh	zero,-2(a4)
   14850:	fee79ce3          	bne	a5,a4,14848 <emdnorm+0x6c>
   14854:	03800793          	li	a5,56
   14858:	38fa8863          	beq	s5,a5,14be8 <emdnorm+0x40c>
   1485c:	1b57da63          	bge	a5,s5,14a10 <emdnorm+0x234>
   14860:	04000793          	li	a5,64
   14864:	2afa8a63          	beq	s5,a5,14b18 <emdnorm+0x33c>
   14868:	07100793          	li	a5,113
   1486c:	3afa9c63          	bne	s5,a5,14c24 <emdnorm+0x448>
   14870:	400087b7          	lui	a5,0x40008
   14874:	00a00693          	li	a3,10
   14878:	ffff8737          	lui	a4,0xffff8
   1487c:	fff78793          	add	a5,a5,-1 # 40007fff <__BSS_END__+0x3ffe247f>
   14880:	00d42423          	sw	a3,8(s0)
   14884:	00f42a23          	sw	a5,20(s0)
   14888:	00e41c23          	sh	a4,24(s0)
   1488c:	00d42623          	sw	a3,12(s0)
   14890:	02e41723          	sh	a4,46(s0)
   14894:	01542023          	sw	s5,0(s0)
   14898:	23205063          	blez	s2,14ab8 <emdnorm+0x2dc>
   1489c:	0144d603          	lhu	a2,20(s1)
   148a0:	01448593          	add	a1,s1,20
   148a4:	00b00793          	li	a5,11
   148a8:	03161613          	sll	a2,a2,0x31
   148ac:	03165613          	srl	a2,a2,0x31
   148b0:	00c00713          	li	a4,12
   148b4:	40f7073b          	subw	a4,a4,a5
   148b8:	02071713          	sll	a4,a4,0x20
   148bc:	02075713          	srl	a4,a4,0x20
   148c0:	00f70733          	add	a4,a4,a5
   148c4:	00171713          	sll	a4,a4,0x1
   148c8:	00179793          	sll	a5,a5,0x1
   148cc:	00248693          	add	a3,s1,2
   148d0:	00f487b3          	add	a5,s1,a5
   148d4:	00d70733          	add	a4,a4,a3
   148d8:	0007d683          	lhu	a3,0(a5)
   148dc:	00068463          	beqz	a3,148e4 <emdnorm+0x108>
   148e0:	00166613          	or	a2,a2,1
   148e4:	00079023          	sh	zero,0(a5)
   148e8:	00278793          	add	a5,a5,2
   148ec:	fef716e3          	bne	a4,a5,148d8 <emdnorm+0xfc>
   148f0:	0005d703          	lhu	a4,0(a1)
   148f4:	01445683          	lhu	a3,20(s0)
   148f8:	fff6c693          	not	a3,a3
   148fc:	00d77733          	and	a4,a4,a3
   14900:	00e59023          	sh	a4,0(a1)
   14904:	01645783          	lhu	a5,22(s0)
   14908:	00c7f733          	and	a4,a5,a2
   1490c:	06070063          	beqz	a4,1496c <emdnorm+0x190>
   14910:	02c79263          	bne	a5,a2,14934 <emdnorm+0x158>
   14914:	2c099663          	bnez	s3,14be0 <emdnorm+0x404>
   14918:	00c42783          	lw	a5,12(s0)
   1491c:	01845703          	lhu	a4,24(s0)
   14920:	00179793          	sll	a5,a5,0x1
   14924:	00f487b3          	add	a5,s1,a5
   14928:	0007d783          	lhu	a5,0(a5)
   1492c:	00e7f7b3          	and	a5,a5,a4
   14930:	02078e63          	beqz	a5,1496c <emdnorm+0x190>
   14934:	03240793          	add	a5,s0,50
   14938:	01848613          	add	a2,s1,24
   1493c:	00248513          	add	a0,s1,2
   14940:	00000593          	li	a1,0
   14944:	0007d703          	lhu	a4,0(a5)
   14948:	00065683          	lhu	a3,0(a2)
   1494c:	ffe60613          	add	a2,a2,-2
   14950:	ffe78793          	add	a5,a5,-2
   14954:	00d70733          	add	a4,a4,a3
   14958:	00b70733          	add	a4,a4,a1
   1495c:	01075593          	srl	a1,a4,0x10
   14960:	00e61123          	sh	a4,2(a2)
   14964:	0015f593          	and	a1,a1,1
   14968:	fcc51ee3          	bne	a0,a2,14944 <emdnorm+0x168>
   1496c:	23205a63          	blez	s2,14ba0 <emdnorm+0x3c4>
   14970:	0044d783          	lhu	a5,4(s1)
   14974:	20079663          	bnez	a5,14b80 <emdnorm+0x3a4>
   14978:	000087b7          	lui	a5,0x8
   1497c:	00049c23          	sh	zero,24(s1)
   14980:	ffe78793          	add	a5,a5,-2 # 7ffe <exit-0x80ea>
   14984:	0f27c263          	blt	a5,s2,14a68 <emdnorm+0x28c>
   14988:	01249123          	sh	s2,2(s1)
   1498c:	03813083          	ld	ra,56(sp)
   14990:	03013403          	ld	s0,48(sp)
   14994:	02813483          	ld	s1,40(sp)
   14998:	02013903          	ld	s2,32(sp)
   1499c:	01813983          	ld	s3,24(sp)
   149a0:	01013a03          	ld	s4,16(sp)
   149a4:	00813a83          	ld	s5,8(sp)
   149a8:	04010113          	add	sp,sp,64
   149ac:	00008067          	ret
   149b0:	04094063          	bltz	s2,149f0 <emdnorm+0x214>
   149b4:	fc0a82e3          	beqz	s5,14978 <emdnorm+0x19c>
   149b8:	00442a83          	lw	s5,4(s0)
   149bc:	00042783          	lw	a5,0(s0)
   149c0:	e8fa90e3          	bne	s5,a5,14840 <emdnorm+0x64>
   149c4:	2d204263          	bgtz	s2,14c88 <emdnorm+0x4ac>
   149c8:	09000713          	li	a4,144
   149cc:	2ce79263          	bne	a5,a4,14c90 <emdnorm+0x4b4>
   149d0:	00842583          	lw	a1,8(s0)
   149d4:	01445683          	lhu	a3,20(s0)
   149d8:	09000a93          	li	s5,144
   149dc:	00159593          	sll	a1,a1,0x1
   149e0:	00b485b3          	add	a1,s1,a1
   149e4:	0005d703          	lhu	a4,0(a1)
   149e8:	00d77633          	and	a2,a4,a3
   149ec:	f0dff06f          	j	148f8 <emdnorm+0x11c>
   149f0:	f7000793          	li	a5,-144
   149f4:	16f95263          	bge	s2,a5,14b58 <emdnorm+0x37c>
   149f8:	00248793          	add	a5,s1,2
   149fc:	01a48493          	add	s1,s1,26
   14a00:	00278793          	add	a5,a5,2
   14a04:	fe079f23          	sh	zero,-2(a5)
   14a08:	fe979ce3          	bne	a5,s1,14a00 <emdnorm+0x224>
   14a0c:	f81ff06f          	j	1498c <emdnorm+0x1b0>
   14a10:	01800793          	li	a5,24
   14a14:	06fa8c63          	beq	s5,a5,14a8c <emdnorm+0x2b0>
   14a18:	03500793          	li	a5,53
   14a1c:	20fa9463          	bne	s5,a5,14c24 <emdnorm+0x448>
   14a20:	000017b7          	lui	a5,0x1
   14a24:	04000737          	lui	a4,0x4000
   14a28:	00600693          	li	a3,6
   14a2c:	80078793          	add	a5,a5,-2048 # 800 <exit-0xf8e8>
   14a30:	7ff70713          	add	a4,a4,2047 # 40007ff <__BSS_END__+0x3fdac7f>
   14a34:	00d42423          	sw	a3,8(s0)
   14a38:	00e42a23          	sw	a4,20(s0)
   14a3c:	00f41c23          	sh	a5,24(s0)
   14a40:	00d42623          	sw	a3,12(s0)
   14a44:	02f41323          	sh	a5,38(s0)
   14a48:	01542023          	sw	s5,0(s0)
   14a4c:	07205663          	blez	s2,14ab8 <emdnorm+0x2dc>
   14a50:	00c4d603          	lhu	a2,12(s1)
   14a54:	00c48593          	add	a1,s1,12
   14a58:	00700793          	li	a5,7
   14a5c:	7ff67613          	and	a2,a2,2047
   14a60:	e51ff06f          	j	148b0 <emdnorm+0xd4>
   14a64:	00049c23          	sh	zero,24(s1)
   14a68:	ffff87b7          	lui	a5,0xffff8
   14a6c:	fff7c793          	not	a5,a5
   14a70:	00f49123          	sh	a5,2(s1)
   14a74:	00448793          	add	a5,s1,4
   14a78:	01848493          	add	s1,s1,24
   14a7c:	00079023          	sh	zero,0(a5) # ffffffffffff8000 <__BSS_END__+0xfffffffffffd2480>
   14a80:	00278793          	add	a5,a5,2
   14a84:	fe979ce3          	bne	a5,s1,14a7c <emdnorm+0x2a0>
   14a88:	f05ff06f          	j	1498c <emdnorm+0x1b0>
   14a8c:	008007b7          	lui	a5,0x800
   14a90:	00400693          	li	a3,4
   14a94:	10000713          	li	a4,256
   14a98:	0ff78793          	add	a5,a5,255 # 8000ff <__BSS_END__+0x7da57f>
   14a9c:	00d42423          	sw	a3,8(s0)
   14aa0:	00f42a23          	sw	a5,20(s0)
   14aa4:	00e41c23          	sh	a4,24(s0)
   14aa8:	00d42623          	sw	a3,12(s0)
   14aac:	02e41123          	sh	a4,34(s0)
   14ab0:	01542023          	sw	s5,0(s0)
   14ab4:	1b204c63          	bgtz	s2,14c6c <emdnorm+0x490>
   14ab8:	0184d783          	lhu	a5,24(s1)
   14abc:	00048513          	mv	a0,s1
   14ac0:	0017f793          	and	a5,a5,1
   14ac4:	00f9e7b3          	or	a5,s3,a5
   14ac8:	0007899b          	sext.w	s3,a5
   14acc:	decff0ef          	jal	140b8 <eshdn1>
   14ad0:	00842783          	lw	a5,8(s0)
   14ad4:	01445683          	lhu	a3,20(s0)
   14ad8:	08f00513          	li	a0,143
   14adc:	00179593          	sll	a1,a5,0x1
   14ae0:	00b485b3          	add	a1,s1,a1
   14ae4:	0005d703          	lhu	a4,0(a1)
   14ae8:	00d77633          	and	a2,a4,a3
   14aec:	e15546e3          	blt	a0,s5,148f8 <emdnorm+0x11c>
   14af0:	0017879b          	addw	a5,a5,1
   14af4:	00c00513          	li	a0,12
   14af8:	daf55ce3          	bge	a0,a5,148b0 <emdnorm+0xd4>
   14afc:	dfdff06f          	j	148f8 <emdnorm+0x11c>
   14b00:	00248793          	add	a5,s1,2
   14b04:	01a48493          	add	s1,s1,26
   14b08:	00278793          	add	a5,a5,2
   14b0c:	fe079f23          	sh	zero,-2(a5)
   14b10:	fe979ce3          	bne	a5,s1,14b08 <emdnorm+0x32c>
   14b14:	e79ff06f          	j	1498c <emdnorm+0x1b0>
   14b18:	00700793          	li	a5,7
   14b1c:	00f42423          	sw	a5,8(s0)
   14b20:	800107b7          	lui	a5,0x80010
   14b24:	fff78793          	add	a5,a5,-1 # ffffffff8000ffff <__BSS_END__+0xffffffff7ffea47f>
   14b28:	00100713          	li	a4,1
   14b2c:	00f42a23          	sw	a5,20(s0)
   14b30:	00600793          	li	a5,6
   14b34:	00e41c23          	sh	a4,24(s0)
   14b38:	00f42623          	sw	a5,12(s0)
   14b3c:	02e41323          	sh	a4,38(s0)
   14b40:	01542023          	sw	s5,0(s0)
   14b44:	f7205ae3          	blez	s2,14ab8 <emdnorm+0x2dc>
   14b48:	00e4d603          	lhu	a2,14(s1)
   14b4c:	00e48593          	add	a1,s1,14
   14b50:	00800793          	li	a5,8
   14b54:	d5dff06f          	j	148b0 <emdnorm+0xd4>
   14b58:	0009059b          	sext.w	a1,s2
   14b5c:	00048513          	mv	a0,s1
   14b60:	8b1ff0ef          	jal	14410 <eshift.part.0>
   14b64:	0e050a63          	beqz	a0,14c58 <emdnorm+0x47c>
   14b68:	100a8a63          	beqz	s5,14c7c <emdnorm+0x4a0>
   14b6c:	00442a83          	lw	s5,4(s0)
   14b70:	00042783          	lw	a5,0(s0)
   14b74:	00100993          	li	s3,1
   14b78:	ccfa94e3          	bne	s5,a5,14840 <emdnorm+0x64>
   14b7c:	e4dff06f          	j	149c8 <emdnorm+0x1ec>
   14b80:	00048513          	mv	a0,s1
   14b84:	d34ff0ef          	jal	140b8 <eshdn1>
   14b88:	000087b7          	lui	a5,0x8
   14b8c:	00190913          	add	s2,s2,1
   14b90:	00049c23          	sh	zero,24(s1)
   14b94:	ffe78793          	add	a5,a5,-2 # 7ffe <exit-0x80ea>
   14b98:	ed27c8e3          	blt	a5,s2,14a68 <emdnorm+0x28c>
   14b9c:	dedff06f          	j	14988 <emdnorm+0x1ac>
   14ba0:	09000793          	li	a5,144
   14ba4:	02fa8263          	beq	s5,a5,14bc8 <emdnorm+0x3ec>
   14ba8:	00048513          	mv	a0,s1
   14bac:	d60ff0ef          	jal	1410c <eshup1>
   14bb0:	0044d783          	lhu	a5,4(s1)
   14bb4:	00079e63          	bnez	a5,14bd0 <emdnorm+0x3f4>
   14bb8:	00049c23          	sh	zero,24(s1)
   14bbc:	dc0956e3          	bgez	s2,14988 <emdnorm+0x1ac>
   14bc0:	00049123          	sh	zero,2(s1)
   14bc4:	dc9ff06f          	j	1498c <emdnorm+0x1b0>
   14bc8:	0044d783          	lhu	a5,4(s1)
   14bcc:	fe0786e3          	beqz	a5,14bb8 <emdnorm+0x3dc>
   14bd0:	00048513          	mv	a0,s1
   14bd4:	ce4ff0ef          	jal	140b8 <eshdn1>
   14bd8:	00190913          	add	s2,s2,1
   14bdc:	fddff06f          	j	14bb8 <emdnorm+0x3dc>
   14be0:	d40a0ae3          	beqz	s4,14934 <emdnorm+0x158>
   14be4:	d89ff06f          	j	1496c <emdnorm+0x190>
   14be8:	008007b7          	lui	a5,0x800
   14bec:	00600693          	li	a3,6
   14bf0:	10000713          	li	a4,256
   14bf4:	0ff78793          	add	a5,a5,255 # 8000ff <__BSS_END__+0x7da57f>
   14bf8:	00d42423          	sw	a3,8(s0)
   14bfc:	00f42a23          	sw	a5,20(s0)
   14c00:	00e41c23          	sh	a4,24(s0)
   14c04:	00d42623          	sw	a3,12(s0)
   14c08:	02e41323          	sh	a4,38(s0)
   14c0c:	01542023          	sw	s5,0(s0)
   14c10:	eb2054e3          	blez	s2,14ab8 <emdnorm+0x2dc>
   14c14:	00c4c603          	lbu	a2,12(s1)
   14c18:	00c48593          	add	a1,s1,12
   14c1c:	00700793          	li	a5,7
   14c20:	c91ff06f          	j	148b0 <emdnorm+0xd4>
   14c24:	00c00793          	li	a5,12
   14c28:	00f42423          	sw	a5,8(s0)
   14c2c:	800107b7          	lui	a5,0x80010
   14c30:	fff78793          	add	a5,a5,-1 # ffffffff8000ffff <__BSS_END__+0xffffffff7ffea47f>
   14c34:	00100713          	li	a4,1
   14c38:	00f42a23          	sw	a5,20(s0)
   14c3c:	00b00793          	li	a5,11
   14c40:	00f42623          	sw	a5,12(s0)
   14c44:	00e41c23          	sh	a4,24(s0)
   14c48:	02e41823          	sh	a4,48(s0)
   14c4c:	01542023          	sw	s5,0(s0)
   14c50:	000a8793          	mv	a5,s5
   14c54:	d71ff06f          	j	149c4 <emdnorm+0x1e8>
   14c58:	020a8263          	beqz	s5,14c7c <emdnorm+0x4a0>
   14c5c:	00442a83          	lw	s5,4(s0)
   14c60:	00042783          	lw	a5,0(s0)
   14c64:	bcfa9ee3          	bne	s5,a5,14840 <emdnorm+0x64>
   14c68:	d61ff06f          	j	149c8 <emdnorm+0x1ec>
   14c6c:	0084c603          	lbu	a2,8(s1)
   14c70:	00848593          	add	a1,s1,8
   14c74:	00500793          	li	a5,5
   14c78:	c39ff06f          	j	148b0 <emdnorm+0xd4>
   14c7c:	00049c23          	sh	zero,24(s1)
   14c80:	00049123          	sh	zero,2(s1)
   14c84:	d09ff06f          	j	1498c <emdnorm+0x1b0>
   14c88:	00078a93          	mv	s5,a5
   14c8c:	e45ff06f          	j	14ad0 <emdnorm+0x2f4>
   14c90:	00078a93          	mv	s5,a5
   14c94:	e25ff06f          	j	14ab8 <emdnorm+0x2dc>

0000000000014c98 <eiremain>:
   14c98:	fa010113          	add	sp,sp,-96
   14c9c:	05213023          	sd	s2,64(sp)
   14ca0:	03313c23          	sd	s3,56(sp)
   14ca4:	00058913          	mv	s2,a1
   14ca8:	00255983          	lhu	s3,2(a0)
   14cac:	04113c23          	sd	ra,88(sp)
   14cb0:	04813823          	sd	s0,80(sp)
   14cb4:	04913423          	sd	s1,72(sp)
   14cb8:	03413823          	sd	s4,48(sp)
   14cbc:	00060493          	mv	s1,a2
   14cc0:	01713c23          	sd	s7,24(sp)
   14cc4:	03513423          	sd	s5,40(sp)
   14cc8:	03613023          	sd	s6,32(sp)
   14ccc:	01813823          	sd	s8,16(sp)
   14cd0:	01913423          	sd	s9,8(sp)
   14cd4:	01a13023          	sd	s10,0(sp)
   14cd8:	00050b93          	mv	s7,a0
   14cdc:	dc8ff0ef          	jal	142a4 <enormlz>
   14ce0:	00295403          	lhu	s0,2(s2)
   14ce4:	00050793          	mv	a5,a0
   14ce8:	00090513          	mv	a0,s2
   14cec:	40f989b3          	sub	s3,s3,a5
   14cf0:	03448a13          	add	s4,s1,52
   14cf4:	db0ff0ef          	jal	142a4 <enormlz>
   14cf8:	40a40433          	sub	s0,s0,a0
   14cfc:	04e48713          	add	a4,s1,78
   14d00:	000a0793          	mv	a5,s4
   14d04:	00278793          	add	a5,a5,2
   14d08:	fe079f23          	sh	zero,-2(a5)
   14d0c:	fee79ce3          	bne	a5,a4,14d04 <eiremain+0x6c>
   14d10:	09344863          	blt	s0,s3,14da0 <eiremain+0x108>
   14d14:	004b8b13          	add	s6,s7,4
   14d18:	00490a93          	add	s5,s2,4
   14d1c:	01ab8c13          	add	s8,s7,26
   14d20:	00290d13          	add	s10,s2,2
   14d24:	000a8713          	mv	a4,s5
   14d28:	000b0793          	mv	a5,s6
   14d2c:	0007d603          	lhu	a2,0(a5)
   14d30:	00075683          	lhu	a3,0(a4)
   14d34:	00278793          	add	a5,a5,2
   14d38:	00270713          	add	a4,a4,2
   14d3c:	0ad61a63          	bne	a2,a3,14df0 <eiremain+0x158>
   14d40:	fefc16e3          	bne	s8,a5,14d2c <eiremain+0x94>
   14d44:	018b8613          	add	a2,s7,24
   14d48:	01890713          	add	a4,s2,24
   14d4c:	00000693          	li	a3,0
   14d50:	00075783          	lhu	a5,0(a4)
   14d54:	00065583          	lhu	a1,0(a2)
   14d58:	ffe70713          	add	a4,a4,-2
   14d5c:	ffe60613          	add	a2,a2,-2
   14d60:	40b787b3          	sub	a5,a5,a1
   14d64:	40d787b3          	sub	a5,a5,a3
   14d68:	0107d693          	srl	a3,a5,0x10
   14d6c:	00f71123          	sh	a5,2(a4)
   14d70:	0016f693          	and	a3,a3,1
   14d74:	fda71ee3          	bne	a4,s10,14d50 <eiremain+0xb8>
   14d78:	00100c93          	li	s9,1
   14d7c:	000a0513          	mv	a0,s4
   14d80:	b8cff0ef          	jal	1410c <eshup1>
   14d84:	04c4d783          	lhu	a5,76(s1)
   14d88:	fff40413          	add	s0,s0,-1
   14d8c:	00090513          	mv	a0,s2
   14d90:	00fce7b3          	or	a5,s9,a5
   14d94:	04f49623          	sh	a5,76(s1)
   14d98:	b74ff0ef          	jal	1410c <eshup1>
   14d9c:	f93454e3          	bge	s0,s3,14d24 <eiremain+0x8c>
   14da0:	00040693          	mv	a3,s0
   14da4:	05013403          	ld	s0,80(sp)
   14da8:	05813083          	ld	ra,88(sp)
   14dac:	03813983          	ld	s3,56(sp)
   14db0:	03013a03          	ld	s4,48(sp)
   14db4:	02813a83          	ld	s5,40(sp)
   14db8:	02013b03          	ld	s6,32(sp)
   14dbc:	01813b83          	ld	s7,24(sp)
   14dc0:	01013c03          	ld	s8,16(sp)
   14dc4:	00813c83          	ld	s9,8(sp)
   14dc8:	00013d03          	ld	s10,0(sp)
   14dcc:	00048793          	mv	a5,s1
   14dd0:	00090513          	mv	a0,s2
   14dd4:	04813483          	ld	s1,72(sp)
   14dd8:	04013903          	ld	s2,64(sp)
   14ddc:	00000713          	li	a4,0
   14de0:	00000613          	li	a2,0
   14de4:	00000593          	li	a1,0
   14de8:	06010113          	add	sp,sp,96
   14dec:	9f1ff06f          	j	147dc <emdnorm>
   14df0:	00000c93          	li	s9,0
   14df4:	f8c6e4e3          	bltu	a3,a2,14d7c <eiremain+0xe4>
   14df8:	f4dff06f          	j	14d44 <eiremain+0xac>

0000000000014dfc <e113toe.isra.0>:
   14dfc:	fd010113          	add	sp,sp,-48
   14e00:	02813023          	sd	s0,32(sp)
   14e04:	02113423          	sd	ra,40(sp)
   14e08:	00058413          	mv	s0,a1
   14e0c:	00010793          	mv	a5,sp
   14e10:	01a10713          	add	a4,sp,26
   14e14:	00278793          	add	a5,a5,2
   14e18:	fe079f23          	sh	zero,-2(a5)
   14e1c:	fee79ce3          	bne	a5,a4,14e14 <e113toe.isra.0+0x18>
   14e20:	00e55783          	lhu	a5,14(a0)
   14e24:	00008737          	lui	a4,0x8
   14e28:	fff70713          	add	a4,a4,-1 # 7fff <exit-0x80e9>
   14e2c:	03079693          	sll	a3,a5,0x30
   14e30:	43f6d693          	sra	a3,a3,0x3f
   14e34:	00d11023          	sh	a3,0(sp)
   14e38:	00e7f6b3          	and	a3,a5,a4
   14e3c:	00068613          	mv	a2,a3
   14e40:	06e68063          	beq	a3,a4,14ea0 <e113toe.isra.0+0xa4>
   14e44:	00e50793          	add	a5,a0,14
   14e48:	00d11123          	sh	a3,2(sp)
   14e4c:	00610713          	add	a4,sp,6
   14e50:	ffe7d683          	lhu	a3,-2(a5)
   14e54:	ffe78793          	add	a5,a5,-2
   14e58:	00270713          	add	a4,a4,2
   14e5c:	fed71f23          	sh	a3,-2(a4)
   14e60:	fef518e3          	bne	a0,a5,14e50 <e113toe.isra.0+0x54>
   14e64:	02061263          	bnez	a2,14e88 <e113toe.isra.0+0x8c>
   14e68:	00011223          	sh	zero,4(sp)
   14e6c:	00040593          	mv	a1,s0
   14e70:	00010513          	mv	a0,sp
   14e74:	b74ff0ef          	jal	141e8 <emovo.constprop.0>
   14e78:	02813083          	ld	ra,40(sp)
   14e7c:	02013403          	ld	s0,32(sp)
   14e80:	03010113          	add	sp,sp,48
   14e84:	00008067          	ret
   14e88:	00100793          	li	a5,1
   14e8c:	fff00593          	li	a1,-1
   14e90:	00010513          	mv	a0,sp
   14e94:	00f11223          	sh	a5,4(sp)
   14e98:	d78ff0ef          	jal	14410 <eshift.part.0>
   14e9c:	fd1ff06f          	j	14e6c <e113toe.isra.0+0x70>
   14ea0:	00050793          	mv	a5,a0
   14ea4:	00e50693          	add	a3,a0,14
   14ea8:	0007d703          	lhu	a4,0(a5)
   14eac:	00278793          	add	a5,a5,2
   14eb0:	06071c63          	bnez	a4,14f28 <e113toe.isra.0+0x12c>
   14eb4:	fed79ae3          	bne	a5,a3,14ea8 <e113toe.isra.0+0xac>
   14eb8:	01440713          	add	a4,s0,20
   14ebc:	00040793          	mv	a5,s0
   14ec0:	00278793          	add	a5,a5,2
   14ec4:	fe079f23          	sh	zero,-2(a5)
   14ec8:	fee79ce3          	bne	a5,a4,14ec0 <e113toe.isra.0+0xc4>
   14ecc:	01240713          	add	a4,s0,18
   14ed0:	00040793          	mv	a5,s0
   14ed4:	00278793          	add	a5,a5,2
   14ed8:	fe079f23          	sh	zero,-2(a5)
   14edc:	fee79ce3          	bne	a5,a4,14ed4 <e113toe.isra.0+0xd8>
   14ee0:	01245783          	lhu	a5,18(s0)
   14ee4:	000086b7          	lui	a3,0x8
   14ee8:	fff68693          	add	a3,a3,-1 # 7fff <exit-0x80e9>
   14eec:	00d7e7b3          	or	a5,a5,a3
   14ef0:	03079793          	sll	a5,a5,0x30
   14ef4:	0307d793          	srl	a5,a5,0x30
   14ef8:	00f41923          	sh	a5,18(s0)
   14efc:	00e51683          	lh	a3,14(a0)
   14f00:	f606dce3          	bgez	a3,14e78 <e113toe.isra.0+0x7c>
   14f04:	00040693          	mv	a3,s0
   14f08:	0006d603          	lhu	a2,0(a3)
   14f0c:	00268693          	add	a3,a3,2
   14f10:	f60614e3          	bnez	a2,14e78 <e113toe.isra.0+0x7c>
   14f14:	fee69ae3          	bne	a3,a4,14f08 <e113toe.isra.0+0x10c>
   14f18:	ffff8737          	lui	a4,0xffff8
   14f1c:	00e7c7b3          	xor	a5,a5,a4
   14f20:	00f41923          	sh	a5,18(s0)
   14f24:	f55ff06f          	j	14e78 <e113toe.isra.0+0x7c>
   14f28:	01040713          	add	a4,s0,16
   14f2c:	00040793          	mv	a5,s0
   14f30:	00278793          	add	a5,a5,2
   14f34:	fe079f23          	sh	zero,-2(a5)
   14f38:	fee79ce3          	bne	a5,a4,14f30 <e113toe.isra.0+0x134>
   14f3c:	ffffc7b7          	lui	a5,0xffffc
   14f40:	00f41823          	sh	a5,16(s0)
   14f44:	ffff87b7          	lui	a5,0xffff8
   14f48:	fff7c793          	not	a5,a5
   14f4c:	00f41923          	sh	a5,18(s0)
   14f50:	f29ff06f          	j	14e78 <e113toe.isra.0+0x7c>

0000000000014f54 <ediv>:
   14f54:	01255783          	lhu	a5,18(a0)
   14f58:	f1010113          	add	sp,sp,-240
   14f5c:	0e813023          	sd	s0,224(sp)
   14f60:	fff7c793          	not	a5,a5
   14f64:	0c913c23          	sd	s1,216(sp)
   14f68:	0d213823          	sd	s2,208(sp)
   14f6c:	0d313423          	sd	s3,200(sp)
   14f70:	0e113423          	sd	ra,232(sp)
   14f74:	0d413023          	sd	s4,192(sp)
   14f78:	0b513c23          	sd	s5,184(sp)
   14f7c:	0b613823          	sd	s6,176(sp)
   14f80:	0b713423          	sd	s7,168(sp)
   14f84:	0b813023          	sd	s8,160(sp)
   14f88:	09913c23          	sd	s9,152(sp)
   14f8c:	09a13823          	sd	s10,144(sp)
   14f90:	09b13423          	sd	s11,136(sp)
   14f94:	03179713          	sll	a4,a5,0x31
   14f98:	00050493          	mv	s1,a0
   14f9c:	00058993          	mv	s3,a1
   14fa0:	00060413          	mv	s0,a2
   14fa4:	00068913          	mv	s2,a3
   14fa8:	00071e63          	bnez	a4,14fc4 <ediv+0x70>
   14fac:	01250693          	add	a3,a0,18
   14fb0:	00050793          	mv	a5,a0
   14fb4:	0007d703          	lhu	a4,0(a5) # ffffffffffff8000 <__BSS_END__+0xfffffffffffd2480>
   14fb8:	00278793          	add	a5,a5,2
   14fbc:	0e071e63          	bnez	a4,150b8 <ediv+0x164>
   14fc0:	fed79ae3          	bne	a5,a3,14fb4 <ediv+0x60>
   14fc4:	0129d783          	lhu	a5,18(s3)
   14fc8:	fff7c793          	not	a5,a5
   14fcc:	03179713          	sll	a4,a5,0x31
   14fd0:	00071e63          	bnez	a4,14fec <ediv+0x98>
   14fd4:	01298693          	add	a3,s3,18
   14fd8:	00098793          	mv	a5,s3
   14fdc:	0007d703          	lhu	a4,0(a5)
   14fe0:	00278793          	add	a5,a5,2
   14fe4:	0e071863          	bnez	a4,150d4 <ediv+0x180>
   14fe8:	fed79ae3          	bne	a5,a3,14fdc <ediv+0x88>
   14fec:	00023a37          	lui	s4,0x23
   14ff0:	1a0a0593          	add	a1,s4,416 # 231a0 <ezero>
   14ff4:	00048513          	mv	a0,s1
   14ff8:	e94ff0ef          	jal	1468c <ecmp>
   14ffc:	18050a63          	beqz	a0,15190 <ediv+0x23c>
   15000:	0124d603          	lhu	a2,18(s1)
   15004:	000087b7          	lui	a5,0x8
   15008:	fff78793          	add	a5,a5,-1 # 7fff <exit-0x80e9>
   1500c:	00f67533          	and	a0,a2,a5
   15010:	0ef51063          	bne	a0,a5,150f0 <ediv+0x19c>
   15014:	01248693          	add	a3,s1,18
   15018:	00048793          	mv	a5,s1
   1501c:	0007d703          	lhu	a4,0(a5)
   15020:	00278793          	add	a5,a5,2
   15024:	0c071663          	bnez	a4,150f0 <ediv+0x19c>
   15028:	fed79ae3          	bne	a5,a3,1501c <ediv+0xc8>
   1502c:	0129d703          	lhu	a4,18(s3)
   15030:	fff74793          	not	a5,a4
   15034:	03179693          	sll	a3,a5,0x31
   15038:	14069263          	bnez	a3,1517c <ediv+0x228>
   1503c:	01298693          	add	a3,s3,18
   15040:	00098793          	mv	a5,s3
   15044:	0007d583          	lhu	a1,0(a5)
   15048:	00278793          	add	a5,a5,2
   1504c:	48059a63          	bnez	a1,154e0 <ediv+0x58c>
   15050:	fed79ae3          	bne	a5,a3,15044 <ediv+0xf0>
   15054:	01040713          	add	a4,s0,16
   15058:	00040793          	mv	a5,s0
   1505c:	00278793          	add	a5,a5,2
   15060:	fe079f23          	sh	zero,-2(a5)
   15064:	fee79ce3          	bne	a5,a4,1505c <ediv+0x108>
   15068:	ffffc7b7          	lui	a5,0xffffc
   1506c:	00f41823          	sh	a5,16(s0)
   15070:	ffff87b7          	lui	a5,0xffff8
   15074:	fff7c793          	not	a5,a5
   15078:	00f41923          	sh	a5,18(s0)
   1507c:	0e813083          	ld	ra,232(sp)
   15080:	0e013403          	ld	s0,224(sp)
   15084:	0d813483          	ld	s1,216(sp)
   15088:	0d013903          	ld	s2,208(sp)
   1508c:	0c813983          	ld	s3,200(sp)
   15090:	0c013a03          	ld	s4,192(sp)
   15094:	0b813a83          	ld	s5,184(sp)
   15098:	0b013b03          	ld	s6,176(sp)
   1509c:	0a813b83          	ld	s7,168(sp)
   150a0:	0a013c03          	ld	s8,160(sp)
   150a4:	09813c83          	ld	s9,152(sp)
   150a8:	09013d03          	ld	s10,144(sp)
   150ac:	08813d83          	ld	s11,136(sp)
   150b0:	0f010113          	add	sp,sp,240
   150b4:	00008067          	ret
   150b8:	01448713          	add	a4,s1,20
   150bc:	0004d783          	lhu	a5,0(s1)
   150c0:	00248493          	add	s1,s1,2
   150c4:	00240413          	add	s0,s0,2
   150c8:	fef41f23          	sh	a5,-2(s0)
   150cc:	fee498e3          	bne	s1,a4,150bc <ediv+0x168>
   150d0:	fadff06f          	j	1507c <ediv+0x128>
   150d4:	01440713          	add	a4,s0,20
   150d8:	0009d783          	lhu	a5,0(s3)
   150dc:	00240413          	add	s0,s0,2
   150e0:	00298993          	add	s3,s3,2
   150e4:	fef41f23          	sh	a5,-2(s0)
   150e8:	fee418e3          	bne	s0,a4,150d8 <ediv+0x184>
   150ec:	f91ff06f          	j	1507c <ediv+0x128>
   150f0:	0129d703          	lhu	a4,18(s3)
   150f4:	fff74793          	not	a5,a4
   150f8:	03179693          	sll	a3,a5,0x31
   150fc:	0a069463          	bnez	a3,151a4 <ediv+0x250>
   15100:	00000813          	li	a6,0
   15104:	01298693          	add	a3,s3,18
   15108:	00098793          	mv	a5,s3
   1510c:	0007d583          	lhu	a1,0(a5) # ffffffffffff8000 <__BSS_END__+0xfffffffffffd2480>
   15110:	00278793          	add	a5,a5,2
   15114:	06059263          	bnez	a1,15178 <ediv+0x224>
   15118:	fed79ae3          	bne	a5,a3,1510c <ediv+0x1b8>
   1511c:	000087b7          	lui	a5,0x8
   15120:	fff78793          	add	a5,a5,-1 # 7fff <exit-0x80e9>
   15124:	0cf50863          	beq	a0,a5,151f4 <ediv+0x2a0>
   15128:	00f65613          	srl	a2,a2,0xf
   1512c:	0009d783          	lhu	a5,0(s3)
   15130:	00298993          	add	s3,s3,2
   15134:	38079e63          	bnez	a5,154d0 <ediv+0x57c>
   15138:	fed99ae3          	bne	s3,a3,1512c <ediv+0x1d8>
   1513c:	00f75793          	srl	a5,a4,0xf
   15140:	00c7c7b3          	xor	a5,a5,a2
   15144:	00f7979b          	sllw	a5,a5,0xf
   15148:	00f41923          	sh	a5,18(s0)
   1514c:	01240713          	add	a4,s0,18
   15150:	00040793          	mv	a5,s0
   15154:	00278793          	add	a5,a5,2
   15158:	fe079f23          	sh	zero,-2(a5)
   1515c:	fee79ce3          	bne	a5,a4,15154 <ediv+0x200>
   15160:	01245783          	lhu	a5,18(s0)
   15164:	00008737          	lui	a4,0x8
   15168:	fff70713          	add	a4,a4,-1 # 7fff <exit-0x80e9>
   1516c:	00e7e7b3          	or	a5,a5,a4
   15170:	00f41923          	sh	a5,18(s0)
   15174:	f09ff06f          	j	1507c <ediv+0x128>
   15178:	02080663          	beqz	a6,151a4 <ediv+0x250>
   1517c:	01440793          	add	a5,s0,20
   15180:	00240413          	add	s0,s0,2
   15184:	fe041f23          	sh	zero,-2(s0)
   15188:	fef41ce3          	bne	s0,a5,15180 <ediv+0x22c>
   1518c:	ef1ff06f          	j	1507c <ediv+0x128>
   15190:	1a0a0593          	add	a1,s4,416
   15194:	00098513          	mv	a0,s3
   15198:	cf4ff0ef          	jal	1468c <ecmp>
   1519c:	e60512e3          	bnez	a0,15000 <ediv+0xac>
   151a0:	eb5ff06f          	j	15054 <ediv+0x100>
   151a4:	02010593          	add	a1,sp,32
   151a8:	00048513          	mv	a0,s1
   151ac:	c28ff0ef          	jal	145d4 <emovi>
   151b0:	04010593          	add	a1,sp,64
   151b4:	00098513          	mv	a0,s3
   151b8:	c1cff0ef          	jal	145d4 <emovi>
   151bc:	04215b03          	lhu	s6,66(sp)
   151c0:	02215c03          	lhu	s8,34(sp)
   151c4:	040b1463          	bnez	s6,1520c <ediv+0x2b8>
   151c8:	04210793          	add	a5,sp,66
   151cc:	05810c93          	add	s9,sp,88
   151d0:	0007d703          	lhu	a4,0(a5)
   151d4:	00278793          	add	a5,a5,2
   151d8:	2c071863          	bnez	a4,154a8 <ediv+0x554>
   151dc:	fefc9ae3          	bne	s9,a5,151d0 <ediv+0x27c>
   151e0:	01440793          	add	a5,s0,20
   151e4:	00240413          	add	s0,s0,2
   151e8:	fe041f23          	sh	zero,-2(s0)
   151ec:	fef41ce3          	bne	s0,a5,151e4 <ediv+0x290>
   151f0:	e8dff06f          	j	1507c <ediv+0x128>
   151f4:	01248593          	add	a1,s1,18
   151f8:	0004d783          	lhu	a5,0(s1)
   151fc:	00248493          	add	s1,s1,2
   15200:	2c079c63          	bnez	a5,154d8 <ediv+0x584>
   15204:	feb49ae3          	bne	s1,a1,151f8 <ediv+0x2a4>
   15208:	f21ff06f          	j	15128 <ediv+0x1d4>
   1520c:	01613423          	sd	s6,8(sp)
   15210:	040c1663          	bnez	s8,1525c <ediv+0x308>
   15214:	02210793          	add	a5,sp,34
   15218:	03810693          	add	a3,sp,56
   1521c:	0007d703          	lhu	a4,0(a5)
   15220:	00278793          	add	a5,a5,2
   15224:	28071c63          	bnez	a4,154bc <ediv+0x568>
   15228:	fed79ae3          	bne	a5,a3,1521c <ediv+0x2c8>
   1522c:	02015683          	lhu	a3,32(sp)
   15230:	04015603          	lhu	a2,64(sp)
   15234:	01240713          	add	a4,s0,18
   15238:	00040793          	mv	a5,s0
   1523c:	40c686b3          	sub	a3,a3,a2
   15240:	00d036b3          	snez	a3,a3
   15244:	00f6969b          	sllw	a3,a3,0xf
   15248:	00d41923          	sh	a3,18(s0)
   1524c:	00278793          	add	a5,a5,2
   15250:	fe079f23          	sh	zero,-2(a5)
   15254:	fee79ce3          	bne	a5,a4,1524c <ediv+0x2f8>
   15258:	f09ff06f          	j	15160 <ediv+0x20c>
   1525c:	01813823          	sd	s8,16(sp)
   15260:	04012783          	lw	a5,64(sp)
   15264:	03890493          	add	s1,s2,56
   15268:	03490713          	add	a4,s2,52
   1526c:	02f92a23          	sw	a5,52(s2)
   15270:	00e13c23          	sd	a4,24(sp)
   15274:	04e90993          	add	s3,s2,78
   15278:	00048793          	mv	a5,s1
   1527c:	00278793          	add	a5,a5,2
   15280:	fe079f23          	sh	zero,-2(a5)
   15284:	ff379ce3          	bne	a5,s3,1527c <ediv+0x328>
   15288:	04010513          	add	a0,sp,64
   1528c:	e2dfe0ef          	jal	140b8 <eshdn1>
   15290:	02615b83          	lhu	s7,38(sp)
   15294:	00010a37          	lui	s4,0x10
   15298:	04210d13          	add	s10,sp,66
   1529c:	010b9a93          	sll	s5,s7,0x10
   152a0:	417a8ab3          	sub	s5,s5,s7
   152a4:	05810c93          	add	s9,sp,88
   152a8:	fffa0a13          	add	s4,s4,-1 # ffff <exit-0xe9>
   152ac:	07a10d93          	add	s11,sp,122
   152b0:	06210c13          	add	s8,sp,98
   152b4:	04415783          	lhu	a5,68(sp)
   152b8:	04615703          	lhu	a4,70(sp)
   152bc:	000a0b13          	mv	s6,s4
   152c0:	01079793          	sll	a5,a5,0x10
   152c4:	00e787b3          	add	a5,a5,a4
   152c8:	00fae863          	bltu	s5,a5,152d8 <ediv+0x384>
   152cc:	0377d7b3          	divu	a5,a5,s7
   152d0:	03079b13          	sll	s6,a5,0x30
   152d4:	030b5b13          	srl	s6,s6,0x30
   152d8:	06010613          	add	a2,sp,96
   152dc:	02010593          	add	a1,sp,32
   152e0:	000b0513          	mv	a0,s6
   152e4:	e79fe0ef          	jal	1415c <m16m>
   152e8:	04410713          	add	a4,sp,68
   152ec:	06410793          	add	a5,sp,100
   152f0:	0007d603          	lhu	a2,0(a5)
   152f4:	00075683          	lhu	a3,0(a4)
   152f8:	00278793          	add	a5,a5,2
   152fc:	00270713          	add	a4,a4,2
   15300:	0ed61a63          	bne	a2,a3,153f4 <ediv+0x4a0>
   15304:	ffb796e3          	bne	a5,s11,152f0 <ediv+0x39c>
   15308:	00000693          	li	a3,0
   1530c:	07810613          	add	a2,sp,120
   15310:	000c8793          	mv	a5,s9
   15314:	0007d703          	lhu	a4,0(a5)
   15318:	00065583          	lhu	a1,0(a2)
   1531c:	ffe78793          	add	a5,a5,-2
   15320:	ffe60613          	add	a2,a2,-2
   15324:	40b70733          	sub	a4,a4,a1
   15328:	40d70733          	sub	a4,a4,a3
   1532c:	01075693          	srl	a3,a4,0x10
   15330:	00e79123          	sh	a4,2(a5)
   15334:	0016f693          	and	a3,a3,1
   15338:	fda79ee3          	bne	a5,s10,15314 <ediv+0x3c0>
   1533c:	01649023          	sh	s6,0(s1)
   15340:	04410793          	add	a5,sp,68
   15344:	0027d703          	lhu	a4,2(a5)
   15348:	00278793          	add	a5,a5,2
   1534c:	fee79f23          	sh	a4,-2(a5)
   15350:	ff979ae3          	bne	a5,s9,15344 <ediv+0x3f0>
   15354:	04011c23          	sh	zero,88(sp)
   15358:	00248493          	add	s1,s1,2
   1535c:	f4999ce3          	bne	s3,s1,152b4 <ediv+0x360>
   15360:	00000713          	li	a4,0
   15364:	04410793          	add	a5,sp,68
   15368:	05a10693          	add	a3,sp,90
   1536c:	0007d603          	lhu	a2,0(a5)
   15370:	00278793          	add	a5,a5,2
   15374:	00c76733          	or	a4,a4,a2
   15378:	fed79ae3          	bne	a5,a3,1536c <ediv+0x418>
   1537c:	01813483          	ld	s1,24(sp)
   15380:	0007071b          	sext.w	a4,a4
   15384:	00e035b3          	snez	a1,a4
   15388:	04010793          	add	a5,sp,64
   1538c:	0004d703          	lhu	a4,0(s1)
   15390:	00278793          	add	a5,a5,2
   15394:	00248493          	add	s1,s1,2
   15398:	fee79f23          	sh	a4,-2(a5)
   1539c:	fed798e3          	bne	a5,a3,1538c <ediv+0x438>
   153a0:	00813783          	ld	a5,8(sp)
   153a4:	01013703          	ld	a4,16(sp)
   153a8:	000046b7          	lui	a3,0x4
   153ac:	fff68693          	add	a3,a3,-1 # 3fff <exit-0xc0e9>
   153b0:	40e78b33          	sub	s6,a5,a4
   153b4:	04010513          	add	a0,sp,64
   153b8:	00090793          	mv	a5,s2
   153bc:	04000713          	li	a4,64
   153c0:	00db06b3          	add	a3,s6,a3
   153c4:	00000613          	li	a2,0
   153c8:	c14ff0ef          	jal	147dc <emdnorm>
   153cc:	04015703          	lhu	a4,64(sp)
   153d0:	02015783          	lhu	a5,32(sp)
   153d4:	00040593          	mv	a1,s0
   153d8:	04010513          	add	a0,sp,64
   153dc:	40e787b3          	sub	a5,a5,a4
   153e0:	00f037b3          	snez	a5,a5
   153e4:	40f007bb          	negw	a5,a5
   153e8:	04f11023          	sh	a5,64(sp)
   153ec:	dfdfe0ef          	jal	141e8 <emovo.constprop.0>
   153f0:	c8dff06f          	j	1507c <ediv+0x128>
   153f4:	f0c6fae3          	bgeu	a3,a2,15308 <ediv+0x3b4>
   153f8:	fffb079b          	addw	a5,s6,-1
   153fc:	03079313          	sll	t1,a5,0x30
   15400:	03035313          	srl	t1,t1,0x30
   15404:	00000693          	li	a3,0
   15408:	03810613          	add	a2,sp,56
   1540c:	07810713          	add	a4,sp,120
   15410:	00075783          	lhu	a5,0(a4)
   15414:	00065583          	lhu	a1,0(a2)
   15418:	ffe70713          	add	a4,a4,-2
   1541c:	ffe60613          	add	a2,a2,-2
   15420:	40b787b3          	sub	a5,a5,a1
   15424:	40d787b3          	sub	a5,a5,a3
   15428:	0107d693          	srl	a3,a5,0x10
   1542c:	00f71123          	sh	a5,2(a4)
   15430:	0016f693          	and	a3,a3,1
   15434:	fd871ee3          	bne	a4,s8,15410 <ediv+0x4bc>
   15438:	04410713          	add	a4,sp,68
   1543c:	06410793          	add	a5,sp,100
   15440:	0007d603          	lhu	a2,0(a5)
   15444:	00075683          	lhu	a3,0(a4)
   15448:	00278793          	add	a5,a5,2
   1544c:	00270713          	add	a4,a4,2
   15450:	00d61863          	bne	a2,a3,15460 <ediv+0x50c>
   15454:	ffb796e3          	bne	a5,s11,15440 <ediv+0x4ec>
   15458:	00030b13          	mv	s6,t1
   1545c:	eadff06f          	j	15308 <ediv+0x3b4>
   15460:	fec6fce3          	bgeu	a3,a2,15458 <ediv+0x504>
   15464:	ffeb051b          	addw	a0,s6,-2
   15468:	03051b13          	sll	s6,a0,0x30
   1546c:	030b5b13          	srl	s6,s6,0x30
   15470:	00000693          	li	a3,0
   15474:	03810613          	add	a2,sp,56
   15478:	07810713          	add	a4,sp,120
   1547c:	00075783          	lhu	a5,0(a4)
   15480:	00065583          	lhu	a1,0(a2)
   15484:	ffe70713          	add	a4,a4,-2
   15488:	ffe60613          	add	a2,a2,-2
   1548c:	40b787b3          	sub	a5,a5,a1
   15490:	40d787b3          	sub	a5,a5,a3
   15494:	0107d693          	srl	a3,a5,0x10
   15498:	00f71123          	sh	a5,2(a4)
   1549c:	0016f693          	and	a3,a3,1
   154a0:	fd871ee3          	bne	a4,s8,1547c <ediv+0x528>
   154a4:	e65ff06f          	j	15308 <ediv+0x3b4>
   154a8:	04010513          	add	a0,sp,64
   154ac:	df9fe0ef          	jal	142a4 <enormlz>
   154b0:	40a007b3          	neg	a5,a0
   154b4:	00f13423          	sd	a5,8(sp)
   154b8:	d59ff06f          	j	15210 <ediv+0x2bc>
   154bc:	02010513          	add	a0,sp,32
   154c0:	de5fe0ef          	jal	142a4 <enormlz>
   154c4:	40a007b3          	neg	a5,a0
   154c8:	00f13823          	sd	a5,16(sp)
   154cc:	d95ff06f          	j	15260 <ediv+0x30c>
   154d0:	00000793          	li	a5,0
   154d4:	c6dff06f          	j	15140 <ediv+0x1ec>
   154d8:	00000613          	li	a2,0
   154dc:	c51ff06f          	j	1512c <ediv+0x1d8>
   154e0:	00100813          	li	a6,1
   154e4:	c25ff06f          	j	15108 <ediv+0x1b4>

00000000000154e8 <emul>:
   154e8:	01255803          	lhu	a6,18(a0)
   154ec:	00008737          	lui	a4,0x8
   154f0:	f4010113          	add	sp,sp,-192
   154f4:	fff70713          	add	a4,a4,-1 # 7fff <exit-0x80e9>
   154f8:	0a813823          	sd	s0,176(sp)
   154fc:	0a913423          	sd	s1,168(sp)
   15500:	0b213023          	sd	s2,160(sp)
   15504:	09513423          	sd	s5,136(sp)
   15508:	00050493          	mv	s1,a0
   1550c:	0a113c23          	sd	ra,184(sp)
   15510:	09313c23          	sd	s3,152(sp)
   15514:	09413823          	sd	s4,144(sp)
   15518:	09613023          	sd	s6,128(sp)
   1551c:	07713c23          	sd	s7,120(sp)
   15520:	07813823          	sd	s8,112(sp)
   15524:	07913423          	sd	s9,104(sp)
   15528:	07a13023          	sd	s10,96(sp)
   1552c:	00e87533          	and	a0,a6,a4
   15530:	00058913          	mv	s2,a1
   15534:	00060413          	mv	s0,a2
   15538:	00068a93          	mv	s5,a3
   1553c:	18e51663          	bne	a0,a4,156c8 <emul+0x1e0>
   15540:	01248993          	add	s3,s1,18
   15544:	00048713          	mv	a4,s1
   15548:	00075603          	lhu	a2,0(a4)
   1554c:	00270713          	add	a4,a4,2
   15550:	20061463          	bnez	a2,15758 <emul+0x270>
   15554:	ff371ae3          	bne	a4,s3,15548 <emul+0x60>
   15558:	01295603          	lhu	a2,18(s2)
   1555c:	fff64793          	not	a5,a2
   15560:	03179713          	sll	a4,a5,0x31
   15564:	16070863          	beqz	a4,156d4 <emul+0x1ec>
   15568:	00048793          	mv	a5,s1
   1556c:	0007d703          	lhu	a4,0(a5)
   15570:	00278793          	add	a5,a5,2
   15574:	28071063          	bnez	a4,157f4 <emul+0x30c>
   15578:	ff379ae3          	bne	a5,s3,1556c <emul+0x84>
   1557c:	000235b7          	lui	a1,0x23
   15580:	1a058593          	add	a1,a1,416 # 231a0 <ezero>
   15584:	00090513          	mv	a0,s2
   15588:	904ff0ef          	jal	1468c <ecmp>
   1558c:	28050e63          	beqz	a0,15828 <emul+0x340>
   15590:	01295603          	lhu	a2,18(s2)
   15594:	000085b7          	lui	a1,0x8
   15598:	fff58593          	add	a1,a1,-1 # 7fff <exit-0x80e9>
   1559c:	00b67733          	and	a4,a2,a1
   155a0:	00070693          	mv	a3,a4
   155a4:	01290793          	add	a5,s2,18
